---
triple:          'arm64-apple-darwin'
binary-path:     main
relocations:
  - { offset: 0x3B, size: 0x8, addend: 0x0, symName: _.str, symObjAddr: 0x23FA0, symBinAddr: 0x100080340, symSize: 0x0 }
  - { offset: 0x6B, size: 0x8, addend: 0x0, symName: _.str.1, symObjAddr: 0x24040, symBinAddr: 0x1000803E0, symSize: 0x0 }
  - { offset: 0x88, size: 0x8, addend: 0x0, symName: _.str.2, symObjAddr: 0x24080, symBinAddr: 0x100080420, symSize: 0x0 }
  - { offset: 0xA5, size: 0x8, addend: 0x0, symName: _.str.3, symObjAddr: 0x240C0, symBinAddr: 0x100080460, symSize: 0x0 }
  - { offset: 0xB6, size: 0x8, addend: 0x0, symName: _.str.4, symObjAddr: 0x24100, symBinAddr: 0x1000804A0, symSize: 0x0 }
  - { offset: 0xC7, size: 0x8, addend: 0x0, symName: _.str.5, symObjAddr: 0x24140, symBinAddr: 0x1000804E0, symSize: 0x0 }
  - { offset: 0xE4, size: 0x8, addend: 0x0, symName: _.str.6, symObjAddr: 0x24180, symBinAddr: 0x100080520, symSize: 0x0 }
  - { offset: 0x101, size: 0x8, addend: 0x0, symName: _.str.7, symObjAddr: 0x241A0, symBinAddr: 0x100080540, symSize: 0x0 }
  - { offset: 0x112, size: 0x8, addend: 0x0, symName: _.str.8, symObjAddr: 0x241E0, symBinAddr: 0x100080580, symSize: 0x0 }
  - { offset: 0x12F, size: 0x8, addend: 0x0, symName: _.str.9, symObjAddr: 0x24220, symBinAddr: 0x1000805C0, symSize: 0x0 }
  - { offset: 0x14C, size: 0x8, addend: 0x0, symName: _.str.10, symObjAddr: 0x24240, symBinAddr: 0x1000805E0, symSize: 0x0 }
  - { offset: 0x169, size: 0x8, addend: 0x0, symName: _.str.11, symObjAddr: 0x24280, symBinAddr: 0x100080620, symSize: 0x0 }
  - { offset: 0x186, size: 0x8, addend: 0x0, symName: _.str.12, symObjAddr: 0x242C0, symBinAddr: 0x100080660, symSize: 0x0 }
  - { offset: 0x1A4, size: 0x8, addend: 0x0, symName: _.str.20, symObjAddr: 0x242E0, symBinAddr: 0x100080680, symSize: 0x0 }
  - { offset: 0x6E19, size: 0x8, addend: 0x0, symName: __ZNSt3__17advanceB8ne180100IPNS_6vectorIdNS_9allocatorIdEEEEllvEEvRT_T0_, symObjAddr: 0x1B584, symBinAddr: 0x10001D218, symSize: 0x80 }
  - { offset: 0x6E84, size: 0x8, addend: 0x0, symName: __ZNSt3__124__put_character_sequenceB8ne180100IcNS_11char_traitsIcEEEERNS_13basic_ostreamIT_T0_EES7_PKS4_m, symObjAddr: 0x1E9B8, symBinAddr: 0x10002064C, symSize: 0x1148 }
  - { offset: 0x80FD, size: 0x8, addend: 0x0, symName: __ZNSt3__1lsB8ne180100INS_11char_traitsIcEEEERNS_13basic_ostreamIcT_EES6_PKc, symObjAddr: 0x5848, symBinAddr: 0x1000074DC, symSize: 0xD0 }
  - { offset: 0x8143, size: 0x8, addend: 0x0, symName: __ZNSt3__14endlB8ne180100IcNS_11char_traitsIcEEEERNS_13basic_ostreamIT_T0_EES7_, symObjAddr: 0x5A20, symBinAddr: 0x1000076B4, symSize: 0x3DC }
  - { offset: 0x8183, size: 0x8, addend: 0x0, symName: __ZNSt3__18distanceB8ne180100INS_11__wrap_iterIPNS_6vectorIdNS_9allocatorIdEEEEEEEENS_15iterator_traitsIT_E15difference_typeES9_S9_, symObjAddr: 0x6C78, symBinAddr: 0x10000890C, symSize: 0x348 }
  - { offset: 0x81CE, size: 0x8, addend: 0x0, symName: '__ZNSt3__111max_elementB8ne180100INS_11__wrap_iterIPNS_6vectorIdNS_9allocatorIdEEEEEEZ11acceleratorRKNS2_INS2_IS5_NS3_IS5_EEEENS3_IS9_EEEERKS9_SD_SF_RS9_SG_SG_SG_RS5_SH_SH_SH_bE3$_0EET_SJ_SJ_T0_', symObjAddr: 0x7268, symBinAddr: 0x100008EFC, symSize: 0x3F0 }
  - { offset: 0x8235, size: 0x8, addend: 0x0, symName: __ZNSt3__18distanceB8ne180100INS_11__wrap_iterIPKdEEEENS_15iterator_traitsIT_E15difference_typeES6_S6_, symObjAddr: 0x7904, symBinAddr: 0x100009598, symSize: 0x348 }
  - { offset: 0x8280, size: 0x8, addend: 0x0, symName: __ZNSt3__111max_elementB8ne180100INS_11__wrap_iterIPKdEEEET_S5_S5_, symObjAddr: 0x7EF4, symBinAddr: 0x100009B88, symSize: 0x3DC }
  - { offset: 0x82CB, size: 0x8, addend: 0x0, symName: '__ZNSt3__111max_elementB8ne180100INS_11__wrap_iterIPNS_6vectorIdNS_9allocatorIdEEEEEEZ11acceleratorRKNS2_INS2_IS5_NS3_IS5_EEEENS3_IS9_EEEERKS9_SD_SF_RS9_SG_SG_SG_RS5_SH_SH_SH_bE3$_1EET_SJ_SJ_T0_', symObjAddr: 0x857C, symBinAddr: 0x10000A210, symSize: 0x3F0 }
  - { offset: 0x8332, size: 0x8, addend: 0x0, symName: __ZNSt3__122__make_exception_guardB8ne180100INS_6vectorIdNS_9allocatorIdEEE16__destroy_vectorEEENS_28__exception_guard_exceptionsIT_EES7_, symObjAddr: 0x8F9C, symBinAddr: 0x10000AC30, symSize: 0x2AC }
  - { offset: 0x836B, size: 0x8, addend: 0x0, symName: __ZNSt3__119__allocate_at_leastB8ne180100INS_9allocatorIdEEEENS_19__allocation_resultINS_16allocator_traitsIT_E7pointerEEERS5_m, symObjAddr: 0xAE20, symBinAddr: 0x10000CAB4, symSize: 0x284 }
  - { offset: 0x83B0, size: 0x8, addend: 0x0, symName: __ZNSt3__13minB8ne180100ImEERKT_S3_S3_, symObjAddr: 0xB4E0, symBinAddr: 0x10000D174, symSize: 0x104 }
  - { offset: 0x85DD, size: 0x8, addend: 0x0, symName: __ZNSt3__13minB8ne180100ImNS_6__lessIvvEEEERKT_S5_S5_T0_, symObjAddr: 0xB740, symBinAddr: 0x10000D3D4, symSize: 0x2B8 }
  - { offset: 0x889F, size: 0x8, addend: 0x0, symName: __ZNSt3__120__throw_length_errorB8ne180100EPKc, symObjAddr: 0xBC84, symBinAddr: 0x10000D918, symSize: 0xB4 }
  - { offset: 0x88C7, size: 0x8, addend: 0x0, symName: __ZNSt3__117__libcpp_allocateB8ne180100Emm, symObjAddr: 0xC020, symBinAddr: 0x10000DCB4, symSize: 0x60 }
  - { offset: 0x8921, size: 0x8, addend: 0x0, symName: __ZNSt3__124__is_overaligned_for_newB8ne180100Em, symObjAddr: 0xC080, symBinAddr: 0x10000DD14, symSize: 0x20 }
  - { offset: 0x894F, size: 0x8, addend: 0x0, symName: __ZNSt3__121__libcpp_operator_newB8ne180100IJmSt11align_val_tEEEPvDpT_, symObjAddr: 0xC0A0, symBinAddr: 0x10000DD34, symSize: 0x6C }
  - { offset: 0x899C, size: 0x8, addend: 0x0, symName: __ZNSt3__121__libcpp_operator_newB8ne180100IJmEEEPvDpT_, symObjAddr: 0xC10C, symBinAddr: 0x10000DDA0, symSize: 0x24 }
  - { offset: 0x89D5, size: 0x8, addend: 0x0, symName: __ZNSt3__112__to_addressB8ne180100IdEEPT_S2_, symObjAddr: 0xC810, symBinAddr: 0x10000E4A4, symSize: 0x14 }
  - { offset: 0x8A0A, size: 0x8, addend: 0x0, symName: __ZNSt3__114__construct_atB8ne180100IdJRKdEPdEEPT_S5_DpOT0_, symObjAddr: 0xD488, symBinAddr: 0x10000F11C, symSize: 0x7C }
  - { offset: 0x8A5D, size: 0x8, addend: 0x0, symName: __ZNSt3__112construct_atB8ne180100IdJRKdEPdEEPT_S5_DpOT0_, symObjAddr: 0xD504, symBinAddr: 0x10000F198, symSize: 0x138 }
  - { offset: 0x8AB0, size: 0x8, addend: 0x0, symName: __ZNSt3__112__destroy_atB8ne180100IdLi0EEEvPT_, symObjAddr: 0xE74C, symBinAddr: 0x1000103E0, symSize: 0x10 }
  - { offset: 0x8AE7, size: 0x8, addend: 0x0, symName: __ZNSt3__119__libcpp_deallocateB8ne180100EPvmm, symObjAddr: 0xE7D4, symBinAddr: 0x100010468, symSize: 0x60 }
  - { offset: 0x8B4C, size: 0x8, addend: 0x0, symName: __ZNSt3__127__do_deallocate_handle_sizeB8ne180100IJSt11align_val_tEEEvPvmDpT_, symObjAddr: 0xE834, symBinAddr: 0x1000104C8, symSize: 0x30 }
  - { offset: 0x8B9F, size: 0x8, addend: 0x0, symName: __ZNSt3__127__do_deallocate_handle_sizeB8ne180100IJEEEvPvmDpT_, symObjAddr: 0xE864, symBinAddr: 0x1000104F8, symSize: 0x28 }
  - { offset: 0x8BDD, size: 0x8, addend: 0x0, symName: __ZNSt3__124__libcpp_operator_deleteB8ne180100IJPvSt11align_val_tEEEvDpT_, symObjAddr: 0xE88C, symBinAddr: 0x100010520, symSize: 0x2C }
  - { offset: 0x8C26, size: 0x8, addend: 0x0, symName: __ZNSt3__124__libcpp_operator_deleteB8ne180100IJPvEEEvDpT_, symObjAddr: 0xE8B8, symBinAddr: 0x10001054C, symSize: 0x24 }
  - { offset: 0x8C5B, size: 0x8, addend: 0x0, symName: __ZNSt3__122__make_exception_guardB8ne180100INS_6vectorINS1_IdNS_9allocatorIdEEEENS2_IS4_EEE16__destroy_vectorEEENS_28__exception_guard_exceptionsIT_EES9_, symObjAddr: 0xEF0C, symBinAddr: 0x100010BA0, symSize: 0x2AC }
  - { offset: 0x8C94, size: 0x8, addend: 0x0, symName: __ZNSt3__119__allocate_at_leastB8ne180100INS_9allocatorINS_6vectorIdNS1_IdEEEEEEEENS_19__allocation_resultINS_16allocator_traitsIT_E7pointerEEERS8_m, symObjAddr: 0x10D98, symBinAddr: 0x100012A2C, symSize: 0x284 }
  - { offset: 0x8CD9, size: 0x8, addend: 0x0, symName: __ZNSt3__112__to_addressB8ne180100INS_6vectorIdNS_9allocatorIdEEEEEEPT_S6_, symObjAddr: 0x11ED4, symBinAddr: 0x100013B68, symSize: 0x14 }
  - { offset: 0x8D0E, size: 0x8, addend: 0x0, symName: __ZNSt3__114__construct_atB8ne180100INS_6vectorIdNS_9allocatorIdEEEEJRKS4_EPS4_EEPT_S9_DpOT0_, symObjAddr: 0x12A74, symBinAddr: 0x100014708, symSize: 0x7C }
  - { offset: 0x8D61, size: 0x8, addend: 0x0, symName: __ZNSt3__112construct_atB8ne180100INS_6vectorIdNS_9allocatorIdEEEEJRKS4_EPS4_EEPT_S9_DpOT0_, symObjAddr: 0x12AF0, symBinAddr: 0x100014784, symSize: 0xC0 }
  - { offset: 0x8DB4, size: 0x8, addend: 0x0, symName: __ZNSt3__130__uninitialized_allocator_copyB8ne180100INS_9allocatorIdEEPdS3_S3_EET2_RT_T0_T1_S4_, symObjAddr: 0x13C08, symBinAddr: 0x10001589C, symSize: 0x32C }
  - { offset: 0x8E5A, size: 0x8, addend: 0x0, symName: __ZNSt3__114__unwrap_rangeB8ne180100IPdS1_EEDaT_T0_, symObjAddr: 0x13F34, symBinAddr: 0x100015BC8, symSize: 0x21C }
  - { offset: 0x8EA8, size: 0x8, addend: 0x0, symName: __ZNSt3__135__uninitialized_allocator_copy_implB8ne180100INS_9allocatorIdEEdddLPv0EEEPT2_RT_PT0_S9_S5_, symObjAddr: 0x14150, symBinAddr: 0x100015DE4, symSize: 0x38 }
  - { offset: 0x8F29, size: 0x8, addend: 0x0, symName: __ZNSt3__113__unwrap_iterB8ne180100IPdNS_18__unwrap_iter_implIS1_Lb1EEELi0EEEDTclsrT0_8__unwrapclsr3stdE7declvalIT_EEEES5_, symObjAddr: 0x14188, symBinAddr: 0x100015E1C, symSize: 0x24 }
  - { offset: 0x8F6D, size: 0x8, addend: 0x0, symName: __ZNSt3__113__rewrap_iterB8ne180100IPdS1_NS_18__unwrap_iter_implIS1_Lb1EEEEET_S4_T0_, symObjAddr: 0x141AC, symBinAddr: 0x100015E40, symSize: 0x48 }
  - { offset: 0x910D, size: 0x8, addend: 0x0, symName: __ZNSt3__14copyB8ne180100IPdS1_EET0_T_S3_S2_, symObjAddr: 0x14788, symBinAddr: 0x10001641C, symSize: 0x2AC }
  - { offset: 0x916A, size: 0x8, addend: 0x0, symName: __ZNSt3__16__copyB8ne180100INS_17_ClassicAlgPolicyEPdS2_S2_EENS_4pairIT0_T2_EES4_T1_S5_, symObjAddr: 0x14A34, symBinAddr: 0x1000166C8, symSize: 0x224 }
  - { offset: 0x91D9, size: 0x8, addend: 0x0, symName: __ZNSt3__123__dispatch_copy_or_moveB8ne180100INS_17_ClassicAlgPolicyENS_11__copy_loopIS1_EENS_14__copy_trivialEPdS5_S5_EENS_4pairIT2_T4_EES7_T3_S8_, symObjAddr: 0x14C58, symBinAddr: 0x1000168EC, symSize: 0x224 }
  - { offset: 0x925A, size: 0x8, addend: 0x0, symName: __ZNSt3__121__unwrap_and_dispatchB8ne180100INS_10__overloadINS_11__copy_loopINS_17_ClassicAlgPolicyEEENS_14__copy_trivialEEEPdS7_S7_Li0EEENS_4pairIT0_T2_EES9_T1_SA_, symObjAddr: 0x14E7C, symBinAddr: 0x100016B10, symSize: 0x62C }
  - { offset: 0x9339, size: 0x8, addend: 0x0, symName: __ZNSt3__19make_pairB8ne180100IPdS1_EENS_4pairINS_18__unwrap_ref_decayIT_E4typeENS3_IT0_E4typeEEEOS4_OS7_, symObjAddr: 0x156FC, symBinAddr: 0x100017390, symSize: 0x298 }
  - { offset: 0x938A, size: 0x8, addend: 0x0, symName: __ZNSt3__114__rewrap_rangeB8ne180100IPdS1_S1_EET0_S2_T1_, symObjAddr: 0x15994, symBinAddr: 0x100017628, symSize: 0x2C }
  - { offset: 0x93DF, size: 0x8, addend: 0x0, symName: __ZNSt3__119__copy_trivial_implB8ne180100IddEENS_4pairIPT_PT0_EES3_S3_S5_, symObjAddr: 0x159C0, symBinAddr: 0x100017654, symSize: 0x470 }
  - { offset: 0x944E, size: 0x8, addend: 0x0, symName: __ZNSt3__119__constexpr_memmoveB8ne180100IddLi0EEEPT_S2_PT0_NS_15__element_countE, symObjAddr: 0x15E30, symBinAddr: 0x100017AC4, symSize: 0x64 }
  - { offset: 0x94BC, size: 0x8, addend: 0x0, symName: __ZNSt3__19make_pairB8ne180100IRPdS1_EENS_4pairINS_18__unwrap_ref_decayIT_E4typeENS4_IT0_E4typeEEEOS5_OS8_, symObjAddr: 0x15E94, symBinAddr: 0x100017B28, symSize: 0x298 }
  - { offset: 0x9560, size: 0x8, addend: 0x0, symName: __ZNSt3__112__destroy_atB8ne180100INS_6vectorIdNS_9allocatorIdEEEELi0EEEvPT_, symObjAddr: 0x1767C, symBinAddr: 0x100019310, symSize: 0x6C }
  - { offset: 0x9597, size: 0x8, addend: 0x0, symName: __ZNSt3__130__uninitialized_allocator_copyB8ne180100INS_9allocatorINS_6vectorIdNS1_IdEEEEEEPS4_S6_S6_EET2_RT_T0_T1_S7_, symObjAddr: 0x18A08, symBinAddr: 0x10001A69C, symSize: 0x32C }
  - { offset: 0x963D, size: 0x8, addend: 0x0, symName: __ZNSt3__114__unwrap_rangeB8ne180100IPNS_6vectorIdNS_9allocatorIdEEEES5_EEDaT_T0_, symObjAddr: 0x18D34, symBinAddr: 0x10001A9C8, symSize: 0x21C }
  - { offset: 0x968B, size: 0x8, addend: 0x0, symName: __ZNSt3__135__uninitialized_allocator_copy_implB8ne180100INS_9allocatorINS_6vectorIdNS1_IdEEEEEEPS4_S6_S6_EET2_RT_T0_T1_S7_, symObjAddr: 0x18F50, symBinAddr: 0x10001ABE4, symSize: 0x728 }
  - { offset: 0x9737, size: 0x8, addend: 0x0, symName: __ZNSt3__113__unwrap_iterB8ne180100IPNS_6vectorIdNS_9allocatorIdEEEENS_18__unwrap_iter_implIS5_Lb1EEELi0EEEDTclsrT0_8__unwrapclsr3stdE7declvalIT_EEEES9_, symObjAddr: 0x19678, symBinAddr: 0x10001B30C, symSize: 0x24 }
  - { offset: 0x977B, size: 0x8, addend: 0x0, symName: __ZNSt3__113__rewrap_iterB8ne180100IPNS_6vectorIdNS_9allocatorIdEEEES5_NS_18__unwrap_iter_implIS5_Lb1EEEEET_S8_T0_, symObjAddr: 0x1969C, symBinAddr: 0x10001B330, symSize: 0x48 }
  - { offset: 0x98D2, size: 0x8, addend: 0x0, symName: __ZNSt3__122__make_exception_guardB8ne180100INS_29_AllocatorDestroyRangeReverseINS_9allocatorINS_6vectorIdNS2_IdEEEEEEPS5_EEEENS_28__exception_guard_exceptionsIT_EESA_, symObjAddr: 0x19C78, symBinAddr: 0x10001B90C, symSize: 0x22C }
  - { offset: 0x9909, size: 0x8, addend: 0x0, symName: __ZNSt3__114__construct_atB8ne180100INS_6vectorIdNS_9allocatorIdEEEEJRS4_EPS4_EEPT_S8_DpOT0_, symObjAddr: 0x1A48C, symBinAddr: 0x10001C120, symSize: 0x7C }
  - { offset: 0x995C, size: 0x8, addend: 0x0, symName: __ZNSt3__112construct_atB8ne180100INS_6vectorIdNS_9allocatorIdEEEEJRS4_EPS4_EEPT_S8_DpOT0_, symObjAddr: 0x1A508, symBinAddr: 0x10001C19C, symSize: 0xC0 }
  - { offset: 0x99AF, size: 0x8, addend: 0x0, symName: __ZNSt3__119__allocator_destroyB8ne180100INS_9allocatorINS_6vectorIdNS1_IdEEEEEENS_16reverse_iteratorIPS4_EES8_EEvRT_T0_T1_, symObjAddr: 0x1AB40, symBinAddr: 0x10001C7D4, symSize: 0x2CC }
  - { offset: 0x9A1B, size: 0x8, addend: 0x0, symName: __ZNSt3__1neB8ne180100IPNS_6vectorIdNS_9allocatorIdEEEES5_EEbRKNS_16reverse_iteratorIT_EERKNS6_IT0_EE, symObjAddr: 0x1AE8C, symBinAddr: 0x10001CB20, symSize: 0x9C }
  - { offset: 0x9A67, size: 0x8, addend: 0x0, symName: __ZNSt3__112__to_addressB8ne180100INS_16reverse_iteratorIPNS_6vectorIdNS_9allocatorIdEEEEEEvEEu7__decayIDTclsr19__to_address_helperIT_EE6__callclsr3stdE7declvalIRKS8_EEEEESA_, symObjAddr: 0x1AF28, symBinAddr: 0x10001CBBC, symSize: 0x6C }
  - { offset: 0x9AC6, size: 0x8, addend: 0x0, symName: __ZNSt3__14prevB8ne180100IPNS_6vectorIdNS_9allocatorIdEEEELi0EEET_S6_NS_15iterator_traitsIS6_E15difference_typeE, symObjAddr: 0x1B31C, symBinAddr: 0x10001CFB0, symSize: 0x268 }
  - { offset: 0x9B14, size: 0x8, addend: 0x0, symName: __ZNSt3__121__convert_to_integralB8ne180100El, symObjAddr: 0x1B604, symBinAddr: 0x10001D298, symSize: 0x14 }
  - { offset: 0x9B40, size: 0x8, addend: 0x0, symName: __ZNSt3__19__advanceB8ne180100IPNS_6vectorIdNS_9allocatorIdEEEEEEvRT_NS_15iterator_traitsIS6_E15difference_typeENS_26random_access_iterator_tagE, symObjAddr: 0x1B618, symBinAddr: 0x10001D2AC, symSize: 0x1A4 }
  - { offset: 0x9BDC, size: 0x8, addend: 0x0, symName: __ZNSt3__110__distanceB8ne180100INS_11__wrap_iterIPNS_6vectorIdNS_9allocatorIdEEEEEEEENS_15iterator_traitsIT_E15difference_typeES9_S9_NS_26random_access_iterator_tagE, symObjAddr: 0x1BCF8, symBinAddr: 0x10001D98C, symSize: 0x264 }
  - { offset: 0x9C32, size: 0x8, addend: 0x0, symName: __ZNSt3__1miB8ne180100IPNS_6vectorIdNS_9allocatorIdEEEES5_EEDTmicldtfp_4baseEcldtfp0_4baseEERKNS_11__wrap_iterIT_EERKNS7_IT0_EE, symObjAddr: 0x1BF5C, symBinAddr: 0x10001DBF0, symSize: 0x9C }
  - { offset: 0x9C7E, size: 0x8, addend: 0x0, symName: '__ZNSt3__113__max_elementB8ne180100IRZ11acceleratorRKNS_6vectorINS1_INS1_IdNS_9allocatorIdEEEENS2_IS4_EEEENS2_IS6_EEEERKS6_SA_SC_RS6_SD_SD_SD_RS4_SE_SE_SE_bE3$_0NS_11__wrap_iterIPS4_EEEET0_SK_SK_T_', symObjAddr: 0x1C428, symBinAddr: 0x10001E0BC, symSize: 0x494 }
  - { offset: 0x9CFA, size: 0x8, addend: 0x0, symName: __ZNSt3__1neB8ne180100IPNS_6vectorIdNS_9allocatorIdEEEEEEbRKNS_11__wrap_iterIT_EESA_, symObjAddr: 0x1C8BC, symBinAddr: 0x10001E550, symSize: 0xC4 }
  - { offset: 0x9D3D, size: 0x8, addend: 0x0, symName: __ZNSt3__1eqB8ne180100IPNS_6vectorIdNS_9allocatorIdEEEEEEbRKNS_11__wrap_iterIT_EESA_, symObjAddr: 0x1CE04, symBinAddr: 0x10001EA98, symSize: 0x9C }
  - { offset: 0x9D80, size: 0x8, addend: 0x0, symName: __ZNSt3__110__distanceB8ne180100INS_11__wrap_iterIPKdEEEENS_15iterator_traitsIT_E15difference_typeES6_S6_NS_26random_access_iterator_tagE, symObjAddr: 0x1CEA0, symBinAddr: 0x10001EB34, symSize: 0x264 }
  - { offset: 0x9DD6, size: 0x8, addend: 0x0, symName: __ZNSt3__1miB8ne180100IPKdS2_EEDTmicldtfp_4baseEcldtfp0_4baseEERKNS_11__wrap_iterIT_EERKNS4_IT0_EE, symObjAddr: 0x1D104, symBinAddr: 0x10001ED98, symSize: 0x9C }
  - { offset: 0x9E22, size: 0x8, addend: 0x0, symName: __ZNSt3__111max_elementB8ne180100INS_11__wrap_iterIPKdEENS_6__lessIvvEEEET_S7_S7_T0_, symObjAddr: 0x1D5D0, symBinAddr: 0x10001F264, symSize: 0x3F0 }
  - { offset: 0x9E89, size: 0x8, addend: 0x0, symName: __ZNSt3__113__max_elementB8ne180100IRNS_6__lessIvvEENS_11__wrap_iterIPKdEEEET0_S8_S8_T_, symObjAddr: 0x1D9C0, symBinAddr: 0x10001F654, symSize: 0x494 }
  - { offset: 0x9F05, size: 0x8, addend: 0x0, symName: __ZNSt3__1neB8ne180100IPKdEEbRKNS_11__wrap_iterIT_EES7_, symObjAddr: 0x1DE54, symBinAddr: 0x10001FAE8, symSize: 0xC4 }
  - { offset: 0x9F48, size: 0x8, addend: 0x0, symName: __ZNSt3__1eqB8ne180100IPKdEEbRKNS_11__wrap_iterIT_EES7_, symObjAddr: 0x1E2A0, symBinAddr: 0x10001FF34, symSize: 0x9C }
  - { offset: 0x9F8B, size: 0x8, addend: 0x0, symName: '__ZNSt3__113__max_elementB8ne180100IRZ11acceleratorRKNS_6vectorINS1_INS1_IdNS_9allocatorIdEEEENS2_IS4_EEEENS2_IS6_EEEERKS6_SA_SC_RS6_SD_SD_SD_RS4_SE_SE_SE_bE3$_1NS_11__wrap_iterIPS4_EEEET0_SK_SK_T_', symObjAddr: 0x1E33C, symBinAddr: 0x10001FFD0, symSize: 0x494 }
  - { offset: 0xA007, size: 0x8, addend: 0x0, symName: __ZNSt3__116__pad_and_outputB8ne180100IcNS_11char_traitsIcEEEENS_19ostreambuf_iteratorIT_T0_EES6_PKS4_S8_S8_RNS_8ios_baseES4_, symObjAddr: 0x1FC44, symBinAddr: 0x1000218D8, symSize: 0xBFC }
  - { offset: 0xA0E4, size: 0x8, addend: 0x0, symName: __ZNSt3__112__to_addressB8ne180100IcEEPT_S2_, symObjAddr: 0x21B08, symBinAddr: 0x10002379C, symSize: 0x14 }
  - { offset: 0xA119, size: 0x8, addend: 0x0, symName: __ZNSt3__19use_facetB8ne180100INS_5ctypeIcEEEERKT_RKNS_6localeE, symObjAddr: 0x22F3C, symBinAddr: 0x100024BD0, symSize: 0x188 }
  - { offset: 0xA5E6, size: 0x8, addend: 0x0, symName: __ZNSt3__118__constexpr_strlenB8ne180100EPKc, symObjAddr: 0x23430, symBinAddr: 0x1000250C4, symSize: 0x24 }
  - { offset: 0xB5C6, size: 0x8, addend: 0x0, symName: __ZSt28__throw_bad_array_new_lengthB8ne180100v, symObjAddr: 0xBFA4, symBinAddr: 0x10000DC38, symSize: 0x7C }
  - { offset: 0xBDC5, size: 0x8, addend: 0x0, symName: __Z11acceleratorRKNSt3__16vectorINS0_INS0_IdNS_9allocatorIdEEEENS1_IS3_EEEENS1_IS5_EEEERKS5_S9_SB_RS5_SC_SC_SC_RS3_SD_SD_SD_b, symObjAddr: 0x0, symBinAddr: 0x100001C94, symSize: 0x5848 }
  - { offset: 0xC161, size: 0x8, addend: 0x0, symName: __ZNSt3__113basic_ostreamIcNS_11char_traitsIcEEElsB8ne180100EPFRS3_S4_E, symObjAddr: 0x5918, symBinAddr: 0x1000075AC, symSize: 0x108 }
  - { offset: 0xC195, size: 0x8, addend: 0x0, symName: __ZNSt3__16vectorINS0_IdNS_9allocatorIdEEEENS1_IS3_EEEixB8ne180100Em, symObjAddr: 0x5DFC, symBinAddr: 0x100007A90, symSize: 0x1D4 }
  - { offset: 0xC1CC, size: 0x8, addend: 0x0, symName: __ZNSt3__16vectorIdNS_9allocatorIdEEEixB8ne180100Em, symObjAddr: 0x5FD0, symBinAddr: 0x100007C64, symSize: 0x1CC }
  - { offset: 0xC203, size: 0x8, addend: 0x0, symName: __ZNSt3__16vectorIdNS_9allocatorIdEEEC1EmRKd, symObjAddr: 0x619C, symBinAddr: 0x100007E30, symSize: 0x88 }
  - { offset: 0xC24D, size: 0x8, addend: 0x0, symName: __ZNSt3__16vectorINS0_IdNS_9allocatorIdEEEENS1_IS3_EEEC1EmRKS3_, symObjAddr: 0x6224, symBinAddr: 0x100007EB8, symSize: 0x88 }
  - { offset: 0xC297, size: 0x8, addend: 0x0, symName: __ZNSt3__16vectorIdNS_9allocatorIdEEED1B8ne180100Ev, symObjAddr: 0x62AC, symBinAddr: 0x100007F40, symSize: 0x78 }
  - { offset: 0xC2C1, size: 0x8, addend: 0x0, symName: __ZNKSt3__16vectorINS0_INS0_IdNS_9allocatorIdEEEENS1_IS3_EEEENS1_IS5_EEE4sizeB8ne180100Ev, symObjAddr: 0x6324, symBinAddr: 0x100007FB8, symSize: 0xF8 }
  - { offset: 0xC2E7, size: 0x8, addend: 0x0, symName: __ZNKSt3__16vectorINS0_IdNS_9allocatorIdEEEENS1_IS3_EEEixB8ne180100Em, symObjAddr: 0x641C, symBinAddr: 0x1000080B0, symSize: 0x1D4 }
  - { offset: 0xC31E, size: 0x8, addend: 0x0, symName: __ZNKSt3__16vectorIdNS_9allocatorIdEEEixB8ne180100Em, symObjAddr: 0x65F0, symBinAddr: 0x100008284, symSize: 0x1CC }
  - { offset: 0xC355, size: 0x8, addend: 0x0, symName: __ZNKSt3__16vectorINS0_INS0_IdNS_9allocatorIdEEEENS1_IS3_EEEENS1_IS5_EEEixB8ne180100Em, symObjAddr: 0x67BC, symBinAddr: 0x100008450, symSize: 0x1D4 }
  - { offset: 0xC38C, size: 0x8, addend: 0x0, symName: __ZNKSt3__16vectorINS0_IdNS_9allocatorIdEEEENS1_IS3_EEE5emptyB8ne180100Ev, symObjAddr: 0x6990, symBinAddr: 0x100008624, symSize: 0xF8 }
  - { offset: 0xC3B2, size: 0x8, addend: 0x0, symName: __ZNKSt3__16vectorINS0_IdNS_9allocatorIdEEEENS1_IS3_EEE4sizeB8ne180100Ev, symObjAddr: 0x6A88, symBinAddr: 0x10000871C, symSize: 0xF8 }
  - { offset: 0xC3D8, size: 0x8, addend: 0x0, symName: __ZNSt3__16vectorINS0_IdNS_9allocatorIdEEEENS1_IS3_EEEC1ERKS5_, symObjAddr: 0x6B80, symBinAddr: 0x100008814, symSize: 0x80 }
  - { offset: 0xC413, size: 0x8, addend: 0x0, symName: __ZNSt3__16vectorINS0_IdNS_9allocatorIdEEEENS1_IS3_EEED1B8ne180100Ev, symObjAddr: 0x6C00, symBinAddr: 0x100008894, symSize: 0x78 }
  - { offset: 0xC43D, size: 0x8, addend: 0x0, symName: __ZNSt3__16vectorINS0_IdNS_9allocatorIdEEEENS1_IS3_EEE5beginB8ne180100Ev, symObjAddr: 0x6FC0, symBinAddr: 0x100008C54, symSize: 0x2A8 }
  - { offset: 0xC466, size: 0x8, addend: 0x0, symName: __ZNSt3__16vectorINS0_IdNS_9allocatorIdEEEENS1_IS3_EEE3endB8ne180100Ev, symObjAddr: 0x7658, symBinAddr: 0x1000092EC, symSize: 0x2AC }
  - { offset: 0xC48F, size: 0x8, addend: 0x0, symName: __ZNKSt3__16vectorIdNS_9allocatorIdEEE5beginB8ne180100Ev, symObjAddr: 0x7C4C, symBinAddr: 0x1000098E0, symSize: 0x2A8 }
  - { offset: 0xC4B8, size: 0x8, addend: 0x0, symName: __ZNKSt3__16vectorIdNS_9allocatorIdEEE3endB8ne180100Ev, symObjAddr: 0x82D0, symBinAddr: 0x100009F64, symSize: 0x2AC }
  - { offset: 0xC4E1, size: 0x8, addend: 0x0, symName: __ZNSt3__16vectorIdNS_9allocatorIdEEEC2EmRKd, symObjAddr: 0x896C, symBinAddr: 0x10000A600, symSize: 0x5A8 }
  - { offset: 0xC551, size: 0x8, addend: 0x0, symName: __ZNSt3__117__compressed_pairIPdNS_9allocatorIdEEEC1B8ne180100IDnNS_18__default_init_tagEEEOT_OT0_, symObjAddr: 0x8F14, symBinAddr: 0x10000ABA8, symSize: 0x88 }
  - { offset: 0xC5A9, size: 0x8, addend: 0x0, symName: __ZNSt3__16vectorIdNS_9allocatorIdEEE16__destroy_vectorC1B8ne180100ERS3_, symObjAddr: 0x9248, symBinAddr: 0x10000AEDC, symSize: 0x80 }
  - { offset: 0xC5E2, size: 0x8, addend: 0x0, symName: __ZNSt3__16vectorIdNS_9allocatorIdEEE11__vallocateB8ne180100Em, symObjAddr: 0x92C8, symBinAddr: 0x10000AF5C, symSize: 0x5E0 }
  - { offset: 0xC62C, size: 0x8, addend: 0x0, symName: __ZNSt3__16vectorIdNS_9allocatorIdEEE18__construct_at_endEmRKd, symObjAddr: 0x98A8, symBinAddr: 0x10000B53C, symSize: 0x61C }
  - { offset: 0xC6B6, size: 0x8, addend: 0x0, symName: __ZNSt3__128__exception_guard_exceptionsINS_6vectorIdNS_9allocatorIdEEE16__destroy_vectorEE10__completeB8ne180100Ev, symObjAddr: 0x9EC4, symBinAddr: 0x10000BB58, symSize: 0xD8 }
  - { offset: 0xC6DC, size: 0x8, addend: 0x0, symName: __ZNSt3__128__exception_guard_exceptionsINS_6vectorIdNS_9allocatorIdEEE16__destroy_vectorEED1B8ne180100Ev, symObjAddr: 0x9F9C, symBinAddr: 0x10000BC30, symSize: 0x78 }
  - { offset: 0xC706, size: 0x8, addend: 0x0, symName: __ZNSt3__117__compressed_pairIPdNS_9allocatorIdEEEC2B8ne180100IDnNS_18__default_init_tagEEEOT_OT0_, symObjAddr: 0xA014, symBinAddr: 0x10000BCA8, symSize: 0x140 }
  - { offset: 0xC75E, size: 0x8, addend: 0x0, symName: __ZNSt3__122__compressed_pair_elemIPdLi0ELb0EEC2B8ne180100IDnvEEOT_, symObjAddr: 0xA154, symBinAddr: 0x10000BDE8, symSize: 0xBC }
  - { offset: 0xC7A0, size: 0x8, addend: 0x0, symName: __ZNSt3__122__compressed_pair_elemINS_9allocatorIdEELi1ELb1EEC2B8ne180100ENS_18__default_init_tagE, symObjAddr: 0xA210, symBinAddr: 0x10000BEA4, symSize: 0x84 }
  - { offset: 0xC7D4, size: 0x8, addend: 0x0, symName: __ZNSt3__19allocatorIdEC2B8ne180100Ev, symObjAddr: 0xA294, symBinAddr: 0x10000BF28, symSize: 0x84 }
  - { offset: 0xC7FE, size: 0x8, addend: 0x0, symName: __ZNSt3__116__non_trivial_ifILb1ENS_9allocatorIdEEEC2B8ne180100Ev, symObjAddr: 0xA318, symBinAddr: 0x10000BFAC, symSize: 0x54 }
  - { offset: 0xC828, size: 0x8, addend: 0x0, symName: __ZNSt3__128__exception_guard_exceptionsINS_6vectorIdNS_9allocatorIdEEE16__destroy_vectorEEC1B8ne180100ES5_, symObjAddr: 0xA36C, symBinAddr: 0x10000C000, symSize: 0x284 }
  - { offset: 0xC865, size: 0x8, addend: 0x0, symName: __ZNSt3__128__exception_guard_exceptionsINS_6vectorIdNS_9allocatorIdEEE16__destroy_vectorEEC2B8ne180100ES5_, symObjAddr: 0xA5F0, symBinAddr: 0x10000C284, symSize: 0x2B4 }
  - { offset: 0xC8A2, size: 0x8, addend: 0x0, symName: __ZNSt3__16vectorIdNS_9allocatorIdEEE16__destroy_vectorC2B8ne180100ERS3_, symObjAddr: 0xA8A4, symBinAddr: 0x10000C538, symSize: 0x108 }
  - { offset: 0xC8DB, size: 0x8, addend: 0x0, symName: __ZNKSt3__16vectorIdNS_9allocatorIdEEE8max_sizeEv, symObjAddr: 0xA9AC, symBinAddr: 0x10000C640, symSize: 0x3F4 }
  - { offset: 0xC904, size: 0x8, addend: 0x0, symName: __ZNKSt3__16vectorIdNS_9allocatorIdEEE20__throw_length_errorB8ne180100Ev, symObjAddr: 0xADA0, symBinAddr: 0x10000CA34, symSize: 0x80 }
  - { offset: 0xC92A, size: 0x8, addend: 0x0, symName: __ZNSt3__16vectorIdNS_9allocatorIdEEE7__allocB8ne180100Ev, symObjAddr: 0xB0A4, symBinAddr: 0x10000CD38, symSize: 0xE4 }
  - { offset: 0xC950, size: 0x8, addend: 0x0, symName: __ZNSt3__16vectorIdNS_9allocatorIdEEE9__end_capB8ne180100Ev, symObjAddr: 0xB188, symBinAddr: 0x10000CE1C, symSize: 0x100 }
  - { offset: 0xC976, size: 0x8, addend: 0x0, symName: __ZNKSt3__16vectorIdNS_9allocatorIdEEE14__annotate_newB8ne180100Em, symObjAddr: 0xB288, symBinAddr: 0x10000CF1C, symSize: 0x258 }
  - { offset: 0xC9B5, size: 0x8, addend: 0x0, symName: __ZNSt3__116allocator_traitsINS_9allocatorIdEEE8max_sizeB8ne180100IS2_vvEEmRKS2_, symObjAddr: 0xB5E4, symBinAddr: 0x10000D278, symSize: 0x54 }
  - { offset: 0xC9E0, size: 0x8, addend: 0x0, symName: __ZNKSt3__16vectorIdNS_9allocatorIdEEE7__allocB8ne180100Ev, symObjAddr: 0xB638, symBinAddr: 0x10000D2CC, symSize: 0xE4 }
  - { offset: 0xCA06, size: 0x8, addend: 0x0, symName: __ZNSt3__114numeric_limitsIlE3maxB8ne180100Ev, symObjAddr: 0xB71C, symBinAddr: 0x10000D3B0, symSize: 0x14 }
  - { offset: 0xCA2E, size: 0x8, addend: 0x0, symName: __ZNKSt3__16__lessIvvEclB8ne180100ImmEEbRKT_RKT0_, symObjAddr: 0xB9F8, symBinAddr: 0x10000D68C, symSize: 0xEC }
  - { offset: 0xCA82, size: 0x8, addend: 0x0, symName: __ZNSt3__114numeric_limitsImE3maxB8ne180100Ev, symObjAddr: 0xBAE4, symBinAddr: 0x10000D778, symSize: 0x14 }
  - { offset: 0xCA96, size: 0x8, addend: 0x0, symName: __ZNSt3__123__libcpp_numeric_limitsImLb1EE3maxB8ne180100Ev, symObjAddr: 0xBAF8, symBinAddr: 0x10000D78C, symSize: 0x8 }
  - { offset: 0xCAAA, size: 0x8, addend: 0x0, symName: __ZNKSt3__117__compressed_pairIPdNS_9allocatorIdEEE6secondB8ne180100Ev, symObjAddr: 0xBB00, symBinAddr: 0x10000D794, symSize: 0x108 }
  - { offset: 0xCAD0, size: 0x8, addend: 0x0, symName: __ZNKSt3__122__compressed_pair_elemINS_9allocatorIdEELi1ELb1EE5__getB8ne180100Ev, symObjAddr: 0xBC08, symBinAddr: 0x10000D89C, symSize: 0x74 }
  - { offset: 0xCAF6, size: 0x8, addend: 0x0, symName: __ZNSt3__123__libcpp_numeric_limitsIlLb1EE3maxB8ne180100Ev, symObjAddr: 0xBC7C, symBinAddr: 0x10000D910, symSize: 0x8 }
  - { offset: 0xCB0A, size: 0x8, addend: 0x0, symName: __ZNSt12length_errorC1B8ne180100EPKc, symObjAddr: 0xBD38, symBinAddr: 0x10000D9CC, symSize: 0x80 }
  - { offset: 0xCB42, size: 0x8, addend: 0x0, symName: __ZNSt12length_errorC2B8ne180100EPKc, symObjAddr: 0xBDB8, symBinAddr: 0x10000DA4C, symSize: 0x120 }
  - { offset: 0xCB7A, size: 0x8, addend: 0x0, symName: __ZNSt3__19allocatorIdE8allocateB8ne180100Em, symObjAddr: 0xBED8, symBinAddr: 0x10000DB6C, symSize: 0xCC }
  - { offset: 0xCBAE, size: 0x8, addend: 0x0, symName: __ZNSt3__117__compressed_pairIPdNS_9allocatorIdEEE6secondB8ne180100Ev, symObjAddr: 0xC130, symBinAddr: 0x10000DDC4, symSize: 0x108 }
  - { offset: 0xCBD4, size: 0x8, addend: 0x0, symName: __ZNSt3__122__compressed_pair_elemINS_9allocatorIdEELi1ELb1EE5__getB8ne180100Ev, symObjAddr: 0xC238, symBinAddr: 0x10000DECC, symSize: 0x74 }
  - { offset: 0xCBFA, size: 0x8, addend: 0x0, symName: __ZNSt3__117__compressed_pairIPdNS_9allocatorIdEEE5firstB8ne180100Ev, symObjAddr: 0xC2AC, symBinAddr: 0x10000DF40, symSize: 0x124 }
  - { offset: 0xCC20, size: 0x8, addend: 0x0, symName: __ZNSt3__122__compressed_pair_elemIPdLi0ELb0EE5__getB8ne180100Ev, symObjAddr: 0xC3D0, symBinAddr: 0x10000E064, symSize: 0xAC }
  - { offset: 0xCC46, size: 0x8, addend: 0x0, symName: __ZNKSt3__16vectorIdNS_9allocatorIdEEE31__annotate_contiguous_containerB8ne180100EPKvS5_, symObjAddr: 0xC47C, symBinAddr: 0x10000E110, symSize: 0x1A0 }
  - { offset: 0xCCA8, size: 0x8, addend: 0x0, symName: __ZNKSt3__16vectorIdNS_9allocatorIdEEE4dataB8ne180100Ev, symObjAddr: 0xC61C, symBinAddr: 0x10000E2B0, symSize: 0xB0 }
  - { offset: 0xCCCE, size: 0x8, addend: 0x0, symName: __ZNKSt3__16vectorIdNS_9allocatorIdEEE8capacityB8ne180100Ev, symObjAddr: 0xC6CC, symBinAddr: 0x10000E360, symSize: 0x144 }
  - { offset: 0xCCF4, size: 0x8, addend: 0x0, symName: __ZNKSt3__16vectorIdNS_9allocatorIdEEE9__end_capB8ne180100Ev, symObjAddr: 0xC824, symBinAddr: 0x10000E4B8, symSize: 0x100 }
  - { offset: 0xCD1A, size: 0x8, addend: 0x0, symName: __ZNKSt3__117__compressed_pairIPdNS_9allocatorIdEEE5firstB8ne180100Ev, symObjAddr: 0xC924, symBinAddr: 0x10000E5B8, symSize: 0x124 }
  - { offset: 0xCD40, size: 0x8, addend: 0x0, symName: __ZNKSt3__122__compressed_pair_elemIPdLi0ELb0EE5__getB8ne180100Ev, symObjAddr: 0xCA48, symBinAddr: 0x10000E6DC, symSize: 0xAC }
  - { offset: 0xCD7F, size: 0x8, addend: 0x0, symName: __ZNSt3__16vectorIdNS_9allocatorIdEEE21_ConstructTransactionC1B8ne180100ERS3_m, symObjAddr: 0xCAF4, symBinAddr: 0x10000E788, symSize: 0x88 }
  - { offset: 0xCDC7, size: 0x8, addend: 0x0, symName: __ZNSt3__116allocator_traitsINS_9allocatorIdEEE9constructB8ne180100IdJRKdEvvEEvRS2_PT_DpOT0_, symObjAddr: 0xCB7C, symBinAddr: 0x10000E810, symSize: 0x80 }
  - { offset: 0xCE1B, size: 0x8, addend: 0x0, symName: __ZNSt3__16vectorIdNS_9allocatorIdEEE21_ConstructTransactionD1B8ne180100Ev, symObjAddr: 0xCBFC, symBinAddr: 0x10000E890, symSize: 0x78 }
  - { offset: 0xCE45, size: 0x8, addend: 0x0, symName: __ZNSt3__16vectorIdNS_9allocatorIdEEE21_ConstructTransactionC2B8ne180100ERS3_m, symObjAddr: 0xCC74, symBinAddr: 0x10000E908, symSize: 0x3D8 }
  - { offset: 0xCE8D, size: 0x8, addend: 0x0, symName: __ZNKSt3__16vectorIdNS_9allocatorIdEEE19__annotate_increaseB8ne180100Em, symObjAddr: 0xD04C, symBinAddr: 0x10000ECE0, symSize: 0x344 }
  - { offset: 0xCEC2, size: 0x8, addend: 0x0, symName: __ZNKSt3__16vectorIdNS_9allocatorIdEEE4sizeB8ne180100Ev, symObjAddr: 0xD390, symBinAddr: 0x10000F024, symSize: 0xF8 }
  - { offset: 0xCEE8, size: 0x8, addend: 0x0, symName: __ZNSt3__16vectorIdNS_9allocatorIdEEE21_ConstructTransactionD2B8ne180100Ev, symObjAddr: 0xD63C, symBinAddr: 0x10000F2D0, symSize: 0x390 }
  - { offset: 0xCF12, size: 0x8, addend: 0x0, symName: __ZNKSt3__16vectorIdNS_9allocatorIdEEE17__annotate_shrinkB8ne180100Em, symObjAddr: 0xD9CC, symBinAddr: 0x10000F660, symSize: 0x258 }
  - { offset: 0xCF47, size: 0x8, addend: 0x0, symName: __ZNSt3__128__exception_guard_exceptionsINS_6vectorIdNS_9allocatorIdEEE16__destroy_vectorEED2B8ne180100Ev, symObjAddr: 0xDC24, symBinAddr: 0x10000F8B8, symSize: 0x17C }
  - { offset: 0xCF71, size: 0x8, addend: 0x0, symName: __ZNSt3__16vectorIdNS_9allocatorIdEEE16__destroy_vectorclB8ne180100Ev, symObjAddr: 0xDDA0, symBinAddr: 0x10000FA34, symSize: 0x43C }
  - { offset: 0xCF97, size: 0x8, addend: 0x0, symName: __ZNSt3__16vectorIdNS_9allocatorIdEEE7__clearB8ne180100Ev, symObjAddr: 0xE1DC, symBinAddr: 0x10000FE70, symSize: 0xB0 }
  - { offset: 0xCFBD, size: 0x8, addend: 0x0, symName: __ZNKSt3__16vectorIdNS_9allocatorIdEEE17__annotate_deleteB8ne180100Ev, symObjAddr: 0xE28C, symBinAddr: 0x10000FF20, symSize: 0x268 }
  - { offset: 0xCFE3, size: 0x8, addend: 0x0, symName: __ZNSt3__116allocator_traitsINS_9allocatorIdEEE10deallocateB8ne180100ERS2_Pdm, symObjAddr: 0xE4F4, symBinAddr: 0x100010188, symSize: 0x34 }
  - { offset: 0xD025, size: 0x8, addend: 0x0, symName: __ZNSt3__16vectorIdNS_9allocatorIdEEE22__base_destruct_at_endB8ne180100EPd, symObjAddr: 0xE528, symBinAddr: 0x1000101BC, symSize: 0x1FC }
  - { offset: 0xD069, size: 0x8, addend: 0x0, symName: __ZNSt3__116allocator_traitsINS_9allocatorIdEEE7destroyB8ne180100IdvvEEvRS2_PT_, symObjAddr: 0xE724, symBinAddr: 0x1000103B8, symSize: 0x28 }
  - { offset: 0xD0A3, size: 0x8, addend: 0x0, symName: __ZNSt3__19allocatorIdE10deallocateB8ne180100EPdm, symObjAddr: 0xE75C, symBinAddr: 0x1000103F0, symSize: 0x78 }
  - { offset: 0xD0E5, size: 0x8, addend: 0x0, symName: __ZNSt3__16vectorINS0_IdNS_9allocatorIdEEEENS1_IS3_EEEC2EmRKS3_, symObjAddr: 0xE8DC, symBinAddr: 0x100010570, symSize: 0x5A8 }
  - { offset: 0xD14B, size: 0x8, addend: 0x0, symName: __ZNSt3__117__compressed_pairIPNS_6vectorIdNS_9allocatorIdEEEENS2_IS4_EEEC1B8ne180100IDnNS_18__default_init_tagEEEOT_OT0_, symObjAddr: 0xEE84, symBinAddr: 0x100010B18, symSize: 0x88 }
  - { offset: 0xD1A3, size: 0x8, addend: 0x0, symName: __ZNSt3__16vectorINS0_IdNS_9allocatorIdEEEENS1_IS3_EEE16__destroy_vectorC1B8ne180100ERS5_, symObjAddr: 0xF1B8, symBinAddr: 0x100010E4C, symSize: 0x80 }
  - { offset: 0xD1DC, size: 0x8, addend: 0x0, symName: __ZNSt3__16vectorINS0_IdNS_9allocatorIdEEEENS1_IS3_EEE11__vallocateB8ne180100Em, symObjAddr: 0xF238, symBinAddr: 0x100010ECC, symSize: 0x5E8 }
  - { offset: 0xD226, size: 0x8, addend: 0x0, symName: __ZNSt3__16vectorINS0_IdNS_9allocatorIdEEEENS1_IS3_EEE18__construct_at_endEmRKS3_, symObjAddr: 0xF820, symBinAddr: 0x1000114B4, symSize: 0x61C }
  - { offset: 0xD2B0, size: 0x8, addend: 0x0, symName: __ZNSt3__128__exception_guard_exceptionsINS_6vectorINS1_IdNS_9allocatorIdEEEENS2_IS4_EEE16__destroy_vectorEE10__completeB8ne180100Ev, symObjAddr: 0xFE3C, symBinAddr: 0x100011AD0, symSize: 0xD8 }
  - { offset: 0xD2D6, size: 0x8, addend: 0x0, symName: __ZNSt3__128__exception_guard_exceptionsINS_6vectorINS1_IdNS_9allocatorIdEEEENS2_IS4_EEE16__destroy_vectorEED1B8ne180100Ev, symObjAddr: 0xFF14, symBinAddr: 0x100011BA8, symSize: 0x78 }
  - { offset: 0xD300, size: 0x8, addend: 0x0, symName: __ZNSt3__117__compressed_pairIPNS_6vectorIdNS_9allocatorIdEEEENS2_IS4_EEEC2B8ne180100IDnNS_18__default_init_tagEEEOT_OT0_, symObjAddr: 0xFF8C, symBinAddr: 0x100011C20, symSize: 0x140 }
  - { offset: 0xD358, size: 0x8, addend: 0x0, symName: __ZNSt3__122__compressed_pair_elemIPNS_6vectorIdNS_9allocatorIdEEEELi0ELb0EEC2B8ne180100IDnvEEOT_, symObjAddr: 0x100CC, symBinAddr: 0x100011D60, symSize: 0xBC }
  - { offset: 0xD39A, size: 0x8, addend: 0x0, symName: __ZNSt3__122__compressed_pair_elemINS_9allocatorINS_6vectorIdNS1_IdEEEEEELi1ELb1EEC2B8ne180100ENS_18__default_init_tagE, symObjAddr: 0x10188, symBinAddr: 0x100011E1C, symSize: 0x84 }
  - { offset: 0xD3CE, size: 0x8, addend: 0x0, symName: __ZNSt3__19allocatorINS_6vectorIdNS0_IdEEEEEC2B8ne180100Ev, symObjAddr: 0x1020C, symBinAddr: 0x100011EA0, symSize: 0x84 }
  - { offset: 0xD3F8, size: 0x8, addend: 0x0, symName: __ZNSt3__116__non_trivial_ifILb1ENS_9allocatorINS_6vectorIdNS1_IdEEEEEEEC2B8ne180100Ev, symObjAddr: 0x10290, symBinAddr: 0x100011F24, symSize: 0x54 }
  - { offset: 0xD422, size: 0x8, addend: 0x0, symName: __ZNSt3__128__exception_guard_exceptionsINS_6vectorINS1_IdNS_9allocatorIdEEEENS2_IS4_EEE16__destroy_vectorEEC1B8ne180100ES7_, symObjAddr: 0x102E4, symBinAddr: 0x100011F78, symSize: 0x284 }
  - { offset: 0xD45F, size: 0x8, addend: 0x0, symName: __ZNSt3__128__exception_guard_exceptionsINS_6vectorINS1_IdNS_9allocatorIdEEEENS2_IS4_EEE16__destroy_vectorEEC2B8ne180100ES7_, symObjAddr: 0x10568, symBinAddr: 0x1000121FC, symSize: 0x2B4 }
  - { offset: 0xD49C, size: 0x8, addend: 0x0, symName: __ZNSt3__16vectorINS0_IdNS_9allocatorIdEEEENS1_IS3_EEE16__destroy_vectorC2B8ne180100ERS5_, symObjAddr: 0x1081C, symBinAddr: 0x1000124B0, symSize: 0x108 }
  - { offset: 0xD4D5, size: 0x8, addend: 0x0, symName: __ZNKSt3__16vectorINS0_IdNS_9allocatorIdEEEENS1_IS3_EEE8max_sizeEv, symObjAddr: 0x10924, symBinAddr: 0x1000125B8, symSize: 0x3F4 }
  - { offset: 0xD4FE, size: 0x8, addend: 0x0, symName: __ZNKSt3__16vectorINS0_IdNS_9allocatorIdEEEENS1_IS3_EEE20__throw_length_errorB8ne180100Ev, symObjAddr: 0x10D18, symBinAddr: 0x1000129AC, symSize: 0x80 }
  - { offset: 0xD524, size: 0x8, addend: 0x0, symName: __ZNSt3__16vectorINS0_IdNS_9allocatorIdEEEENS1_IS3_EEE7__allocB8ne180100Ev, symObjAddr: 0x1101C, symBinAddr: 0x100012CB0, symSize: 0xE4 }
  - { offset: 0xD54A, size: 0x8, addend: 0x0, symName: __ZNSt3__16vectorINS0_IdNS_9allocatorIdEEEENS1_IS3_EEE9__end_capB8ne180100Ev, symObjAddr: 0x11100, symBinAddr: 0x100012D94, symSize: 0x100 }
  - { offset: 0xD570, size: 0x8, addend: 0x0, symName: __ZNKSt3__16vectorINS0_IdNS_9allocatorIdEEEENS1_IS3_EEE14__annotate_newB8ne180100Em, symObjAddr: 0x11200, symBinAddr: 0x100012E94, symSize: 0x268 }
  - { offset: 0xD5AF, size: 0x8, addend: 0x0, symName: __ZNSt3__116allocator_traitsINS_9allocatorINS_6vectorIdNS1_IdEEEEEEE8max_sizeB8ne180100IS5_vvEEmRKS5_, symObjAddr: 0x11468, symBinAddr: 0x1000130FC, symSize: 0x54 }
  - { offset: 0xD5DA, size: 0x8, addend: 0x0, symName: __ZNKSt3__16vectorINS0_IdNS_9allocatorIdEEEENS1_IS3_EEE7__allocB8ne180100Ev, symObjAddr: 0x114BC, symBinAddr: 0x100013150, symSize: 0xE4 }
  - { offset: 0xD600, size: 0x8, addend: 0x0, symName: __ZNKSt3__117__compressed_pairIPNS_6vectorIdNS_9allocatorIdEEEENS2_IS4_EEE6secondB8ne180100Ev, symObjAddr: 0x115A0, symBinAddr: 0x100013234, symSize: 0x108 }
  - { offset: 0xD626, size: 0x8, addend: 0x0, symName: __ZNKSt3__122__compressed_pair_elemINS_9allocatorINS_6vectorIdNS1_IdEEEEEELi1ELb1EE5__getB8ne180100Ev, symObjAddr: 0x116A8, symBinAddr: 0x10001333C, symSize: 0x74 }
  - { offset: 0xD64C, size: 0x8, addend: 0x0, symName: __ZNSt3__19allocatorINS_6vectorIdNS0_IdEEEEE8allocateB8ne180100Em, symObjAddr: 0x1171C, symBinAddr: 0x1000133B0, symSize: 0xD0 }
  - { offset: 0xD680, size: 0x8, addend: 0x0, symName: __ZNSt3__117__compressed_pairIPNS_6vectorIdNS_9allocatorIdEEEENS2_IS4_EEE6secondB8ne180100Ev, symObjAddr: 0x117EC, symBinAddr: 0x100013480, symSize: 0x108 }
  - { offset: 0xD6A6, size: 0x8, addend: 0x0, symName: __ZNSt3__122__compressed_pair_elemINS_9allocatorINS_6vectorIdNS1_IdEEEEEELi1ELb1EE5__getB8ne180100Ev, symObjAddr: 0x118F4, symBinAddr: 0x100013588, symSize: 0x74 }
  - { offset: 0xD6CC, size: 0x8, addend: 0x0, symName: __ZNSt3__117__compressed_pairIPNS_6vectorIdNS_9allocatorIdEEEENS2_IS4_EEE5firstB8ne180100Ev, symObjAddr: 0x11968, symBinAddr: 0x1000135FC, symSize: 0x124 }
  - { offset: 0xD6F2, size: 0x8, addend: 0x0, symName: __ZNSt3__122__compressed_pair_elemIPNS_6vectorIdNS_9allocatorIdEEEELi0ELb0EE5__getB8ne180100Ev, symObjAddr: 0x11A8C, symBinAddr: 0x100013720, symSize: 0xAC }
  - { offset: 0xD718, size: 0x8, addend: 0x0, symName: __ZNKSt3__16vectorINS0_IdNS_9allocatorIdEEEENS1_IS3_EEE31__annotate_contiguous_containerB8ne180100EPKvS7_, symObjAddr: 0x11B38, symBinAddr: 0x1000137CC, symSize: 0x1A8 }
  - { offset: 0xD77A, size: 0x8, addend: 0x0, symName: __ZNKSt3__16vectorINS0_IdNS_9allocatorIdEEEENS1_IS3_EEE4dataB8ne180100Ev, symObjAddr: 0x11CE0, symBinAddr: 0x100013974, symSize: 0xB0 }
  - { offset: 0xD7A0, size: 0x8, addend: 0x0, symName: __ZNKSt3__16vectorINS0_IdNS_9allocatorIdEEEENS1_IS3_EEE8capacityB8ne180100Ev, symObjAddr: 0x11D90, symBinAddr: 0x100013A24, symSize: 0x144 }
  - { offset: 0xD7C6, size: 0x8, addend: 0x0, symName: __ZNKSt3__16vectorINS0_IdNS_9allocatorIdEEEENS1_IS3_EEE9__end_capB8ne180100Ev, symObjAddr: 0x11EE8, symBinAddr: 0x100013B7C, symSize: 0x100 }
  - { offset: 0xD7EC, size: 0x8, addend: 0x0, symName: __ZNKSt3__117__compressed_pairIPNS_6vectorIdNS_9allocatorIdEEEENS2_IS4_EEE5firstB8ne180100Ev, symObjAddr: 0x11FE8, symBinAddr: 0x100013C7C, symSize: 0x124 }
  - { offset: 0xD812, size: 0x8, addend: 0x0, symName: __ZNKSt3__122__compressed_pair_elemIPNS_6vectorIdNS_9allocatorIdEEEELi0ELb0EE5__getB8ne180100Ev, symObjAddr: 0x1210C, symBinAddr: 0x100013DA0, symSize: 0xAC }
  - { offset: 0xD851, size: 0x8, addend: 0x0, symName: __ZNSt3__16vectorINS0_IdNS_9allocatorIdEEEENS1_IS3_EEE21_ConstructTransactionC1B8ne180100ERS5_m, symObjAddr: 0x121B8, symBinAddr: 0x100013E4C, symSize: 0x88 }
  - { offset: 0xD899, size: 0x8, addend: 0x0, symName: __ZNSt3__116allocator_traitsINS_9allocatorINS_6vectorIdNS1_IdEEEEEEE9constructB8ne180100IS4_JRKS4_EvvEEvRS5_PT_DpOT0_, symObjAddr: 0x12240, symBinAddr: 0x100013ED4, symSize: 0x80 }
  - { offset: 0xD8ED, size: 0x8, addend: 0x0, symName: __ZNSt3__16vectorINS0_IdNS_9allocatorIdEEEENS1_IS3_EEE21_ConstructTransactionD1B8ne180100Ev, symObjAddr: 0x122C0, symBinAddr: 0x100013F54, symSize: 0x78 }
  - { offset: 0xD917, size: 0x8, addend: 0x0, symName: __ZNSt3__16vectorINS0_IdNS_9allocatorIdEEEENS1_IS3_EEE21_ConstructTransactionC2B8ne180100ERS5_m, symObjAddr: 0x12338, symBinAddr: 0x100013FCC, symSize: 0x3E0 }
  - { offset: 0xD95F, size: 0x8, addend: 0x0, symName: __ZNKSt3__16vectorINS0_IdNS_9allocatorIdEEEENS1_IS3_EEE19__annotate_increaseB8ne180100Em, symObjAddr: 0x12718, symBinAddr: 0x1000143AC, symSize: 0x35C }
  - { offset: 0xD994, size: 0x8, addend: 0x0, symName: __ZNSt3__16vectorIdNS_9allocatorIdEEEC1ERKS3_, symObjAddr: 0x12BB0, symBinAddr: 0x100014844, symSize: 0x80 }
  - { offset: 0xD9CF, size: 0x8, addend: 0x0, symName: __ZNSt3__16vectorIdNS_9allocatorIdEEEC2ERKS3_, symObjAddr: 0x12C30, symBinAddr: 0x1000148C4, symSize: 0x4B0 }
  - { offset: 0xDA0C, size: 0x8, addend: 0x0, symName: __ZNSt3__116allocator_traitsINS_9allocatorIdEEE37select_on_container_copy_constructionB8ne180100IS2_vvEES2_RKS2_, symObjAddr: 0x130E0, symBinAddr: 0x100014D74, symSize: 0x10 }
  - { offset: 0xDA40, size: 0x8, addend: 0x0, symName: __ZNSt3__117__compressed_pairIPdNS_9allocatorIdEEEC1B8ne180100IDnS3_EEOT_OT0_, symObjAddr: 0x130F0, symBinAddr: 0x100014D84, symSize: 0x88 }
  - { offset: 0xDA98, size: 0x8, addend: 0x0, symName: __ZNSt3__16vectorIdNS_9allocatorIdEEE16__init_with_sizeB8ne180100IPdS5_EEvT_T0_m, symObjAddr: 0x13178, symBinAddr: 0x100014E0C, symSize: 0x410 }
  - { offset: 0xDB14, size: 0x8, addend: 0x0, symName: __ZNSt3__117__compressed_pairIPdNS_9allocatorIdEEEC2B8ne180100IDnS3_EEOT_OT0_, symObjAddr: 0x13588, symBinAddr: 0x10001521C, symSize: 0x170 }
  - { offset: 0xDB6C, size: 0x8, addend: 0x0, symName: __ZNSt3__122__compressed_pair_elemINS_9allocatorIdEELi1ELb1EEC2B8ne180100IS2_vEEOT_, symObjAddr: 0x136F8, symBinAddr: 0x10001538C, symSize: 0x58 }
  - { offset: 0xDBAE, size: 0x8, addend: 0x0, symName: __ZNSt3__16vectorIdNS_9allocatorIdEEE18__construct_at_endIPdS5_EEvT_T0_m, symObjAddr: 0x13750, symBinAddr: 0x1000153E4, symSize: 0x4B8 }
  - { offset: 0xDC45, size: 0x8, addend: 0x0, symName: __ZNSt3__119__unwrap_range_implIPdS1_E8__unwrapB8ne180100ES1_S1_, symObjAddr: 0x141F4, symBinAddr: 0x100015E88, symSize: 0x2FC }
  - { offset: 0xDC7D, size: 0x8, addend: 0x0, symName: __ZNSt3__14pairIPdS1_EC1B8ne180100IS1_S1_Li0EEEOT_OT0_, symObjAddr: 0x144F0, symBinAddr: 0x100016184, symSize: 0x88 }
  - { offset: 0xDCDB, size: 0x8, addend: 0x0, symName: __ZNSt3__14pairIPdS1_EC2B8ne180100IS1_S1_Li0EEEOT_OT0_, symObjAddr: 0x14578, symBinAddr: 0x10001620C, symSize: 0x210 }
  - { offset: 0xDD43, size: 0x8, addend: 0x0, symName: __ZNKSt3__114__copy_trivialclB8ne180100IddLi0EEENS_4pairIPT_PT0_EES4_S4_S6_, symObjAddr: 0x154A8, symBinAddr: 0x10001713C, symSize: 0x254 }
  - { offset: 0xDDAF, size: 0x8, addend: 0x0, symName: __ZNSt3__14pairIPdS1_EC1B8ne180100IRS1_S1_Li0EEEOT_OT0_, symObjAddr: 0x1612C, symBinAddr: 0x100017DC0, symSize: 0x88 }
  - { offset: 0xDE0D, size: 0x8, addend: 0x0, symName: __ZNSt3__14pairIPdS1_EC2B8ne180100IRS1_S1_Li0EEEOT_OT0_, symObjAddr: 0x161B4, symBinAddr: 0x100017E48, symSize: 0x210 }
  - { offset: 0xDE6B, size: 0x8, addend: 0x0, symName: __ZNSt3__119__unwrap_range_implIPdS1_E8__rewrapB8ne180100ES1_S1_, symObjAddr: 0x163C4, symBinAddr: 0x100018058, symSize: 0x2C }
  - { offset: 0xDE9C, size: 0x8, addend: 0x0, symName: __ZNSt3__118__unwrap_iter_implIPdLb1EE8__unwrapB8ne180100ES1_, symObjAddr: 0x163F0, symBinAddr: 0x100018084, symSize: 0x24 }
  - { offset: 0xDEBF, size: 0x8, addend: 0x0, symName: __ZNSt3__118__unwrap_iter_implIPdLb1EE8__rewrapB8ne180100ES1_S1_, symObjAddr: 0x16414, symBinAddr: 0x1000180A8, symSize: 0x138 }
  - { offset: 0xDEF0, size: 0x8, addend: 0x0, symName: __ZNSt3__16vectorINS0_IdNS_9allocatorIdEEEENS1_IS3_EEE21_ConstructTransactionD2B8ne180100Ev, symObjAddr: 0x1654C, symBinAddr: 0x1000181E0, symSize: 0x390 }
  - { offset: 0xDF1A, size: 0x8, addend: 0x0, symName: __ZNKSt3__16vectorINS0_IdNS_9allocatorIdEEEENS1_IS3_EEE17__annotate_shrinkB8ne180100Em, symObjAddr: 0x168DC, symBinAddr: 0x100018570, symSize: 0x268 }
  - { offset: 0xDF4F, size: 0x8, addend: 0x0, symName: __ZNSt3__128__exception_guard_exceptionsINS_6vectorINS1_IdNS_9allocatorIdEEEENS2_IS4_EEE16__destroy_vectorEED2B8ne180100Ev, symObjAddr: 0x16B44, symBinAddr: 0x1000187D8, symSize: 0x17C }
  - { offset: 0xDF79, size: 0x8, addend: 0x0, symName: __ZNSt3__16vectorINS0_IdNS_9allocatorIdEEEENS1_IS3_EEE16__destroy_vectorclB8ne180100Ev, symObjAddr: 0x16CC0, symBinAddr: 0x100018954, symSize: 0x43C }
  - { offset: 0xDF9F, size: 0x8, addend: 0x0, symName: __ZNSt3__16vectorINS0_IdNS_9allocatorIdEEEENS1_IS3_EEE7__clearB8ne180100Ev, symObjAddr: 0x170FC, symBinAddr: 0x100018D90, symSize: 0xB0 }
  - { offset: 0xDFC5, size: 0x8, addend: 0x0, symName: __ZNKSt3__16vectorINS0_IdNS_9allocatorIdEEEENS1_IS3_EEE17__annotate_deleteB8ne180100Ev, symObjAddr: 0x171AC, symBinAddr: 0x100018E40, symSize: 0x278 }
  - { offset: 0xDFEB, size: 0x8, addend: 0x0, symName: __ZNSt3__116allocator_traitsINS_9allocatorINS_6vectorIdNS1_IdEEEEEEE10deallocateB8ne180100ERS5_PS4_m, symObjAddr: 0x17424, symBinAddr: 0x1000190B8, symSize: 0x34 }
  - { offset: 0xE02D, size: 0x8, addend: 0x0, symName: __ZNSt3__16vectorINS0_IdNS_9allocatorIdEEEENS1_IS3_EEE22__base_destruct_at_endB8ne180100EPS3_, symObjAddr: 0x17458, symBinAddr: 0x1000190EC, symSize: 0x1FC }
  - { offset: 0xE071, size: 0x8, addend: 0x0, symName: __ZNSt3__116allocator_traitsINS_9allocatorINS_6vectorIdNS1_IdEEEEEEE7destroyB8ne180100IS4_vvEEvRS5_PT_, symObjAddr: 0x17654, symBinAddr: 0x1000192E8, symSize: 0x28 }
  - { offset: 0xE0AB, size: 0x8, addend: 0x0, symName: __ZNSt3__19allocatorINS_6vectorIdNS0_IdEEEEE10deallocateB8ne180100EPS3_m, symObjAddr: 0x176E8, symBinAddr: 0x10001937C, symSize: 0x7C }
  - { offset: 0xE0ED, size: 0x8, addend: 0x0, symName: __ZNSt3__16vectorIdNS_9allocatorIdEEED2B8ne180100Ev, symObjAddr: 0x17764, symBinAddr: 0x1000193F8, symSize: 0x2CC }
  - { offset: 0xE118, size: 0x8, addend: 0x0, symName: __ZNSt3__16vectorINS0_IdNS_9allocatorIdEEEENS1_IS3_EEEC2ERKS5_, symObjAddr: 0x17A30, symBinAddr: 0x1000196C4, symSize: 0x4B0 }
  - { offset: 0xE155, size: 0x8, addend: 0x0, symName: __ZNSt3__116allocator_traitsINS_9allocatorINS_6vectorIdNS1_IdEEEEEEE37select_on_container_copy_constructionB8ne180100IS5_vvEES5_RKS5_, symObjAddr: 0x17EE0, symBinAddr: 0x100019B74, symSize: 0x10 }
  - { offset: 0xE189, size: 0x8, addend: 0x0, symName: __ZNSt3__117__compressed_pairIPNS_6vectorIdNS_9allocatorIdEEEENS2_IS4_EEEC1B8ne180100IDnS6_EEOT_OT0_, symObjAddr: 0x17EF0, symBinAddr: 0x100019B84, symSize: 0x88 }
  - { offset: 0xE1E1, size: 0x8, addend: 0x0, symName: __ZNSt3__16vectorINS0_IdNS_9allocatorIdEEEENS1_IS3_EEE16__init_with_sizeB8ne180100IPS3_S7_EEvT_T0_m, symObjAddr: 0x17F78, symBinAddr: 0x100019C0C, symSize: 0x410 }
  - { offset: 0xE25D, size: 0x8, addend: 0x0, symName: __ZNSt3__117__compressed_pairIPNS_6vectorIdNS_9allocatorIdEEEENS2_IS4_EEEC2B8ne180100IDnS6_EEOT_OT0_, symObjAddr: 0x18388, symBinAddr: 0x10001A01C, symSize: 0x170 }
  - { offset: 0xE2B5, size: 0x8, addend: 0x0, symName: __ZNSt3__122__compressed_pair_elemINS_9allocatorINS_6vectorIdNS1_IdEEEEEELi1ELb1EEC2B8ne180100IS5_vEEOT_, symObjAddr: 0x184F8, symBinAddr: 0x10001A18C, symSize: 0x58 }
  - { offset: 0xE2F7, size: 0x8, addend: 0x0, symName: __ZNSt3__16vectorINS0_IdNS_9allocatorIdEEEENS1_IS3_EEE18__construct_at_endIPS3_S7_EEvT_T0_m, symObjAddr: 0x18550, symBinAddr: 0x10001A1E4, symSize: 0x4B8 }
  - { offset: 0xE38E, size: 0x8, addend: 0x0, symName: __ZNSt3__119__unwrap_range_implIPNS_6vectorIdNS_9allocatorIdEEEES5_E8__unwrapB8ne180100ES5_S5_, symObjAddr: 0x196E4, symBinAddr: 0x10001B378, symSize: 0x2FC }
  - { offset: 0xE3C6, size: 0x8, addend: 0x0, symName: __ZNSt3__14pairIPNS_6vectorIdNS_9allocatorIdEEEES5_EC1B8ne180100IS5_S5_Li0EEEOT_OT0_, symObjAddr: 0x199E0, symBinAddr: 0x10001B674, symSize: 0x88 }
  - { offset: 0xE424, size: 0x8, addend: 0x0, symName: __ZNSt3__14pairIPNS_6vectorIdNS_9allocatorIdEEEES5_EC2B8ne180100IS5_S5_Li0EEEOT_OT0_, symObjAddr: 0x19A68, symBinAddr: 0x10001B6FC, symSize: 0x210 }
  - { offset: 0xE482, size: 0x8, addend: 0x0, symName: __ZNSt3__129_AllocatorDestroyRangeReverseINS_9allocatorINS_6vectorIdNS1_IdEEEEEEPS4_EC1B8ne180100ERS5_RS6_S9_, symObjAddr: 0x19EA4, symBinAddr: 0x10001BB38, symSize: 0x90 }
  - { offset: 0xE4D9, size: 0x8, addend: 0x0, symName: __ZNSt3__116allocator_traitsINS_9allocatorINS_6vectorIdNS1_IdEEEEEEE9constructB8ne180100IS4_JRS4_EvvEEvRS5_PT_DpOT0_, symObjAddr: 0x19F34, symBinAddr: 0x10001BBC8, symSize: 0x80 }
  - { offset: 0xE52D, size: 0x8, addend: 0x0, symName: __ZNSt3__128__exception_guard_exceptionsINS_29_AllocatorDestroyRangeReverseINS_9allocatorINS_6vectorIdNS2_IdEEEEEEPS5_EEE10__completeB8ne180100Ev, symObjAddr: 0x19FB4, symBinAddr: 0x10001BC48, symSize: 0xD8 }
  - { offset: 0xE553, size: 0x8, addend: 0x0, symName: __ZNSt3__128__exception_guard_exceptionsINS_29_AllocatorDestroyRangeReverseINS_9allocatorINS_6vectorIdNS2_IdEEEEEEPS5_EEED1B8ne180100Ev, symObjAddr: 0x1A08C, symBinAddr: 0x10001BD20, symSize: 0x78 }
  - { offset: 0xE57D, size: 0x8, addend: 0x0, symName: __ZNSt3__128__exception_guard_exceptionsINS_29_AllocatorDestroyRangeReverseINS_9allocatorINS_6vectorIdNS2_IdEEEEEEPS5_EEEC1B8ne180100ES8_, symObjAddr: 0x1A104, symBinAddr: 0x10001BD98, symSize: 0x84 }
  - { offset: 0xE5B6, size: 0x8, addend: 0x0, symName: __ZNSt3__128__exception_guard_exceptionsINS_29_AllocatorDestroyRangeReverseINS_9allocatorINS_6vectorIdNS2_IdEEEEEEPS5_EEEC2B8ne180100ES8_, symObjAddr: 0x1A188, symBinAddr: 0x10001BE1C, symSize: 0xF8 }
  - { offset: 0xE5EF, size: 0x8, addend: 0x0, symName: __ZNSt3__129_AllocatorDestroyRangeReverseINS_9allocatorINS_6vectorIdNS1_IdEEEEEEPS4_EC2B8ne180100ERS5_RS6_S9_, symObjAddr: 0x1A280, symBinAddr: 0x10001BF14, symSize: 0x20C }
  - { offset: 0xE646, size: 0x8, addend: 0x0, symName: __ZNSt3__128__exception_guard_exceptionsINS_29_AllocatorDestroyRangeReverseINS_9allocatorINS_6vectorIdNS2_IdEEEEEEPS5_EEED2B8ne180100Ev, symObjAddr: 0x1A5C8, symBinAddr: 0x10001C25C, symSize: 0x17C }
  - { offset: 0xE670, size: 0x8, addend: 0x0, symName: __ZNKSt3__129_AllocatorDestroyRangeReverseINS_9allocatorINS_6vectorIdNS1_IdEEEEEEPS4_EclB8ne180100Ev, symObjAddr: 0x1A744, symBinAddr: 0x10001C3D8, symSize: 0x3FC }
  - { offset: 0xE697, size: 0x8, addend: 0x0, symName: __ZNSt3__116reverse_iteratorIPNS_6vectorIdNS_9allocatorIdEEEEEC1B8ne180100ES5_, symObjAddr: 0x1AE0C, symBinAddr: 0x10001CAA0, symSize: 0x80 }
  - { offset: 0xE6CF, size: 0x8, addend: 0x0, symName: __ZNSt3__116reverse_iteratorIPNS_6vectorIdNS_9allocatorIdEEEEEppB8ne180100Ev, symObjAddr: 0x1AF94, symBinAddr: 0x10001CC28, symSize: 0x1B0 }
  - { offset: 0xE6F5, size: 0x8, addend: 0x0, symName: __ZNKSt3__116reverse_iteratorIPNS_6vectorIdNS_9allocatorIdEEEEE4baseB8ne180100Ev, symObjAddr: 0x1B144, symBinAddr: 0x10001CDD8, symSize: 0xB0 }
  - { offset: 0xE720, size: 0x8, addend: 0x0, symName: __ZNSt3__119__to_address_helperINS_16reverse_iteratorIPNS_6vectorIdNS_9allocatorIdEEEEEEvE6__callB8ne180100ERKS7_, symObjAddr: 0x1B1F4, symBinAddr: 0x10001CE88, symSize: 0x70 }
  - { offset: 0xE743, size: 0x8, addend: 0x0, symName: __ZNKSt3__116reverse_iteratorIPNS_6vectorIdNS_9allocatorIdEEEEEptB8ne180100Ev, symObjAddr: 0x1B264, symBinAddr: 0x10001CEF8, symSize: 0xB8 }
  - { offset: 0xE769, size: 0x8, addend: 0x0, symName: __ZNSt3__116reverse_iteratorIPNS_6vectorIdNS_9allocatorIdEEEEEC2B8ne180100ES5_, symObjAddr: 0x1B7BC, symBinAddr: 0x10001D450, symSize: 0x10C }
  - { offset: 0xE7A1, size: 0x8, addend: 0x0, symName: __ZNSt3__118__unwrap_iter_implIPNS_6vectorIdNS_9allocatorIdEEEELb1EE8__unwrapB8ne180100ES5_, symObjAddr: 0x1B8C8, symBinAddr: 0x10001D55C, symSize: 0x24 }
  - { offset: 0xE7C4, size: 0x8, addend: 0x0, symName: __ZNSt3__118__unwrap_iter_implIPNS_6vectorIdNS_9allocatorIdEEEELb1EE8__rewrapB8ne180100ES5_S5_, symObjAddr: 0x1B8EC, symBinAddr: 0x10001D580, symSize: 0x140 }
  - { offset: 0xE7F5, size: 0x8, addend: 0x0, symName: __ZNSt3__16vectorINS0_IdNS_9allocatorIdEEEENS1_IS3_EEED2B8ne180100Ev, symObjAddr: 0x1BA2C, symBinAddr: 0x10001D6C0, symSize: 0x2CC }
  - { offset: 0xE820, size: 0x8, addend: 0x0, symName: __ZNKSt3__111__wrap_iterIPNS_6vectorIdNS_9allocatorIdEEEEE4baseB8ne180100Ev, symObjAddr: 0x1BFF8, symBinAddr: 0x10001DC8C, symSize: 0xAC }
  - { offset: 0xE846, size: 0x8, addend: 0x0, symName: __ZNSt3__16vectorINS0_IdNS_9allocatorIdEEEENS1_IS3_EEE11__make_iterB8ne180100EPS3_, symObjAddr: 0x1C0A4, symBinAddr: 0x10001DD38, symSize: 0x23C }
  - { offset: 0xE87D, size: 0x8, addend: 0x0, symName: __ZNSt3__111__wrap_iterIPNS_6vectorIdNS_9allocatorIdEEEEEC1B8ne180100ES5_, symObjAddr: 0x1C2E0, symBinAddr: 0x10001DF74, symSize: 0x80 }
  - { offset: 0xE8B5, size: 0x8, addend: 0x0, symName: __ZNSt3__111__wrap_iterIPNS_6vectorIdNS_9allocatorIdEEEEEC2B8ne180100ES5_, symObjAddr: 0x1C360, symBinAddr: 0x10001DFF4, symSize: 0xC8 }
  - { offset: 0xE8ED, size: 0x8, addend: 0x0, symName: __ZNSt3__111__wrap_iterIPNS_6vectorIdNS_9allocatorIdEEEEEppB8ne180100Ev, symObjAddr: 0x1C980, symBinAddr: 0x10001E614, symSize: 0x1A8 }
  - { offset: 0xE91D, size: 0x8, addend: 0x0, symName: '__ZZ11acceleratorRKNSt3__16vectorINS0_INS0_IdNS_9allocatorIdEEEENS1_IS3_EEEENS1_IS5_EEEERKS5_S9_SB_RS5_SC_SC_SC_RS3_SD_SD_SD_bENK3$_0clERKS3_SG_', symObjAddr: 0x1CB28, symBinAddr: 0x10001E7BC, symSize: 0x1E8 }
  - { offset: 0xE963, size: 0x8, addend: 0x0, symName: __ZNKSt3__111__wrap_iterIPNS_6vectorIdNS_9allocatorIdEEEEEdeB8ne180100Ev, symObjAddr: 0x1CD10, symBinAddr: 0x10001E9A4, symSize: 0xF4 }
  - { offset: 0xE989, size: 0x8, addend: 0x0, symName: __ZNKSt3__111__wrap_iterIPKdE4baseB8ne180100Ev, symObjAddr: 0x1D1A0, symBinAddr: 0x10001EE34, symSize: 0xAC }
  - { offset: 0xE9AF, size: 0x8, addend: 0x0, symName: __ZNKSt3__16vectorIdNS_9allocatorIdEEE11__make_iterB8ne180100EPKd, symObjAddr: 0x1D24C, symBinAddr: 0x10001EEE0, symSize: 0x23C }
  - { offset: 0xE9E6, size: 0x8, addend: 0x0, symName: __ZNSt3__111__wrap_iterIPKdEC1B8ne180100ES2_, symObjAddr: 0x1D488, symBinAddr: 0x10001F11C, symSize: 0x80 }
  - { offset: 0xEA1E, size: 0x8, addend: 0x0, symName: __ZNSt3__111__wrap_iterIPKdEC2B8ne180100ES2_, symObjAddr: 0x1D508, symBinAddr: 0x10001F19C, symSize: 0xC8 }
  - { offset: 0xEA56, size: 0x8, addend: 0x0, symName: __ZNSt3__111__wrap_iterIPKdEppB8ne180100Ev, symObjAddr: 0x1DF18, symBinAddr: 0x10001FBAC, symSize: 0x1A8 }
  - { offset: 0xEA7C, size: 0x8, addend: 0x0, symName: __ZNKSt3__16__lessIvvEclB8ne180100IddEEbRKT_RKT0_, symObjAddr: 0x1E0C0, symBinAddr: 0x10001FD54, symSize: 0xEC }
  - { offset: 0xEAD0, size: 0x8, addend: 0x0, symName: __ZNKSt3__111__wrap_iterIPKdEdeB8ne180100Ev, symObjAddr: 0x1E1AC, symBinAddr: 0x10001FE40, symSize: 0xF4 }
  - { offset: 0xEB00, size: 0x8, addend: 0x0, symName: '__ZZ11acceleratorRKNSt3__16vectorINS0_INS0_IdNS_9allocatorIdEEEENS1_IS3_EEEENS1_IS5_EEEERKS5_S9_SB_RS5_SC_SC_SC_RS3_SD_SD_SD_bENK3$_1clERKS3_SG_', symObjAddr: 0x1E7D0, symBinAddr: 0x100020464, symSize: 0x1E8 }
  - { offset: 0xEB46, size: 0x8, addend: 0x0, symName: __ZNSt3__111char_traitsIcE6lengthB8ne180100EPKc, symObjAddr: 0x1FB00, symBinAddr: 0x100021794, symSize: 0x40 }
  - { offset: 0xEB87, size: 0x8, addend: 0x0, symName: __ZNKSt3__113basic_ostreamIcNS_11char_traitsIcEEE6sentrycvbB8ne180100Ev, symObjAddr: 0x1FB40, symBinAddr: 0x1000217D4, symSize: 0x104 }
  - { offset: 0xEBAD, size: 0x8, addend: 0x0, symName: __ZNSt3__119ostreambuf_iteratorIcNS_11char_traitsIcEEEC1B8ne180100ERNS_13basic_ostreamIcS2_EE, symObjAddr: 0x20840, symBinAddr: 0x1000224D4, symSize: 0x80 }
  - { offset: 0xEBE5, size: 0x8, addend: 0x0, symName: __ZNKSt3__18ios_base5flagsB8ne180100Ev, symObjAddr: 0x208C0, symBinAddr: 0x100022554, symSize: 0x160 }
  - { offset: 0xEC0D, size: 0x8, addend: 0x0, symName: __ZNKSt3__19basic_iosIcNS_11char_traitsIcEEE4fillB8ne180100Ev, symObjAddr: 0x20A20, symBinAddr: 0x1000226B4, symSize: 0x3A0 }
  - { offset: 0xEC35, size: 0x8, addend: 0x0, symName: __ZNKSt3__119ostreambuf_iteratorIcNS_11char_traitsIcEEE6failedB8ne180100Ev, symObjAddr: 0x20DC0, symBinAddr: 0x100022A54, symSize: 0xB8 }
  - { offset: 0xEC5B, size: 0x8, addend: 0x0, symName: __ZNSt3__19basic_iosIcNS_11char_traitsIcEEE8setstateB8ne180100Ej, symObjAddr: 0x20E78, symBinAddr: 0x100022B0C, symSize: 0x128 }
  - { offset: 0xEC90, size: 0x8, addend: 0x0, symName: __ZNKSt3__18ios_base5widthB8ne180100Ev, symObjAddr: 0x20FA0, symBinAddr: 0x100022C34, symSize: 0x138 }
  - { offset: 0xECB8, size: 0x8, addend: 0x0, symName: __ZNSt3__115basic_streambufIcNS_11char_traitsIcEEE5sputnB8ne180100EPKcl, symObjAddr: 0x210D8, symBinAddr: 0x100022D6C, symSize: 0x198 }
  - { offset: 0xECFA, size: 0x8, addend: 0x0, symName: __ZNSt3__112basic_stringIcNS_11char_traitsIcEENS_9allocatorIcEEEC1B8ne180100Emc, symObjAddr: 0x21270, symBinAddr: 0x100022F04, symSize: 0x88 }
  - { offset: 0xED42, size: 0x8, addend: 0x0, symName: __ZNSt3__112basic_stringIcNS_11char_traitsIcEENS_9allocatorIcEEE4dataB8ne180100Ev, symObjAddr: 0x212F8, symBinAddr: 0x100022F8C, symSize: 0x70 }
  - { offset: 0xED68, size: 0x8, addend: 0x0, symName: __ZNSt3__18ios_base5widthB8ne180100El, symObjAddr: 0x21368, symBinAddr: 0x100022FFC, symSize: 0x1F8 }
  - { offset: 0xEDAE, size: 0x8, addend: 0x0, symName: __ZNSt3__112basic_stringIcNS_11char_traitsIcEENS_9allocatorIcEEEC2B8ne180100Emc, symObjAddr: 0x21560, symBinAddr: 0x1000231F4, symSize: 0x264 }
  - { offset: 0xEDF9, size: 0x8, addend: 0x0, symName: __ZNSt3__117__compressed_pairINS_12basic_stringIcNS_11char_traitsIcEENS_9allocatorIcEEE5__repES5_EC1B8ne180100INS_18__default_init_tagESA_EEOT_OT0_, symObjAddr: 0x217C4, symBinAddr: 0x100023458, symSize: 0x88 }
  - { offset: 0xEE51, size: 0x8, addend: 0x0, symName: __ZNSt3__117__compressed_pairINS_12basic_stringIcNS_11char_traitsIcEENS_9allocatorIcEEE5__repES5_EC2B8ne180100INS_18__default_init_tagESA_EEOT_OT0_, symObjAddr: 0x2184C, symBinAddr: 0x1000234E0, symSize: 0xF4 }
  - { offset: 0xEEA9, size: 0x8, addend: 0x0, symName: __ZNSt3__122__compressed_pair_elemINS_12basic_stringIcNS_11char_traitsIcEENS_9allocatorIcEEE5__repELi0ELb0EEC2B8ne180100ENS_18__default_init_tagE, symObjAddr: 0x21940, symBinAddr: 0x1000235D4, symSize: 0x6C }
  - { offset: 0xEEDD, size: 0x8, addend: 0x0, symName: __ZNSt3__122__compressed_pair_elemINS_9allocatorIcEELi1ELb1EEC2B8ne180100ENS_18__default_init_tagE, symObjAddr: 0x219AC, symBinAddr: 0x100023640, symSize: 0x84 }
  - { offset: 0xEF11, size: 0x8, addend: 0x0, symName: __ZNSt3__19allocatorIcEC2B8ne180100Ev, symObjAddr: 0x21A30, symBinAddr: 0x1000236C4, symSize: 0x84 }
  - { offset: 0xEF3B, size: 0x8, addend: 0x0, symName: __ZNSt3__116__non_trivial_ifILb1ENS_9allocatorIcEEEC2B8ne180100Ev, symObjAddr: 0x21AB4, symBinAddr: 0x100023748, symSize: 0x54 }
  - { offset: 0xEF65, size: 0x8, addend: 0x0, symName: __ZNSt3__112basic_stringIcNS_11char_traitsIcEENS_9allocatorIcEEE13__get_pointerB8ne180100Ev, symObjAddr: 0x21B1C, symBinAddr: 0x1000237B0, symSize: 0x98 }
  - { offset: 0xEF8B, size: 0x8, addend: 0x0, symName: __ZNKSt3__112basic_stringIcNS_11char_traitsIcEENS_9allocatorIcEEE9__is_longB8ne180100Ev, symObjAddr: 0x21BB4, symBinAddr: 0x100023848, symSize: 0x1FC }
  - { offset: 0xEFB1, size: 0x8, addend: 0x0, symName: __ZNSt3__112basic_stringIcNS_11char_traitsIcEENS_9allocatorIcEEE18__get_long_pointerB8ne180100Ev, symObjAddr: 0x21DB0, symBinAddr: 0x100023A44, symSize: 0x208 }
  - { offset: 0xEFD7, size: 0x8, addend: 0x0, symName: __ZNSt3__112basic_stringIcNS_11char_traitsIcEENS_9allocatorIcEEE19__get_short_pointerB8ne180100Ev, symObjAddr: 0x21FB8, symBinAddr: 0x100023C4C, symSize: 0x1CC }
  - { offset: 0xEFFD, size: 0x8, addend: 0x0, symName: __ZNKSt3__117__compressed_pairINS_12basic_stringIcNS_11char_traitsIcEENS_9allocatorIcEEE5__repES5_E5firstB8ne180100Ev, symObjAddr: 0x22184, symBinAddr: 0x100023E18, symSize: 0x124 }
  - { offset: 0xF023, size: 0x8, addend: 0x0, symName: __ZNKSt3__122__compressed_pair_elemINS_12basic_stringIcNS_11char_traitsIcEENS_9allocatorIcEEE5__repELi0ELb0EE5__getB8ne180100Ev, symObjAddr: 0x222A8, symBinAddr: 0x100023F3C, symSize: 0xAC }
  - { offset: 0xF049, size: 0x8, addend: 0x0, symName: __ZNSt3__117__compressed_pairINS_12basic_stringIcNS_11char_traitsIcEENS_9allocatorIcEEE5__repES5_E5firstB8ne180100Ev, symObjAddr: 0x22354, symBinAddr: 0x100023FE8, symSize: 0x124 }
  - { offset: 0xF06F, size: 0x8, addend: 0x0, symName: __ZNSt3__122__compressed_pair_elemINS_12basic_stringIcNS_11char_traitsIcEENS_9allocatorIcEEE5__repELi0ELb0EE5__getB8ne180100Ev, symObjAddr: 0x22478, symBinAddr: 0x10002410C, symSize: 0xAC }
  - { offset: 0xF095, size: 0x8, addend: 0x0, symName: __ZNSt3__114pointer_traitsIPcE10pointer_toB8ne180100ERc, symObjAddr: 0x22524, symBinAddr: 0x1000241B8, symSize: 0x14 }
  - { offset: 0xF0B8, size: 0x8, addend: 0x0, symName: __ZNSt3__119ostreambuf_iteratorIcNS_11char_traitsIcEEEC2B8ne180100ERNS_13basic_ostreamIcS2_EE, symObjAddr: 0x22538, symBinAddr: 0x1000241CC, symSize: 0x2E8 }
  - { offset: 0xF0F0, size: 0x8, addend: 0x0, symName: __ZNKSt3__19basic_iosIcNS_11char_traitsIcEEE5rdbufB8ne180100Ev, symObjAddr: 0x22820, symBinAddr: 0x1000244B4, symSize: 0x120 }
  - { offset: 0xF118, size: 0x8, addend: 0x0, symName: __ZNKSt3__18ios_base5rdbufB8ne180100Ev, symObjAddr: 0x22940, symBinAddr: 0x1000245D4, symSize: 0x138 }
  - { offset: 0xF13E, size: 0x8, addend: 0x0, symName: __ZNSt3__111char_traitsIcE11eq_int_typeB8ne180100Eii, symObjAddr: 0x22A78, symBinAddr: 0x10002470C, symSize: 0x28 }
  - { offset: 0xF171, size: 0x8, addend: 0x0, symName: __ZNSt3__111char_traitsIcE3eofB8ne180100Ev, symObjAddr: 0x22AA0, symBinAddr: 0x100024734, symSize: 0x8 }
  - { offset: 0xF185, size: 0x8, addend: 0x0, symName: __ZNKSt3__19basic_iosIcNS_11char_traitsIcEEE5widenB8ne180100Ec, symObjAddr: 0x22AA8, symBinAddr: 0x10002473C, symSize: 0x494 }
  - { offset: 0xF1FB, size: 0x8, addend: 0x0, symName: __ZNKSt3__15ctypeIcE5widenB8ne180100Ec, symObjAddr: 0x230C4, symBinAddr: 0x100024D58, symSize: 0x18C }
  - { offset: 0xF230, size: 0x8, addend: 0x0, symName: __ZNSt3__18ios_base8setstateB8ne180100Ej, symObjAddr: 0x23250, symBinAddr: 0x100024EE4, symSize: 0x1E0 }
  - { offset: 0x11707, size: 0x8, addend: 0x0, symName: _.str, symObjAddr: 0x15A60, symBinAddr: 0x1000806A0, symSize: 0x0 }
  - { offset: 0x11737, size: 0x8, addend: 0x0, symName: _.str.1, symObjAddr: 0x15AA0, symBinAddr: 0x1000806E0, symSize: 0x0 }
  - { offset: 0x11754, size: 0x8, addend: 0x0, symName: _.str.2, symObjAddr: 0x15AE0, symBinAddr: 0x100080720, symSize: 0x0 }
  - { offset: 0x11765, size: 0x8, addend: 0x0, symName: _.str.3, symObjAddr: 0x15B20, symBinAddr: 0x100080760, symSize: 0x0 }
  - { offset: 0x11782, size: 0x8, addend: 0x0, symName: _.str.4, symObjAddr: 0x15B40, symBinAddr: 0x100080780, symSize: 0x0 }
  - { offset: 0x1179F, size: 0x8, addend: 0x0, symName: _.str.5, symObjAddr: 0x15B80, symBinAddr: 0x1000807C0, symSize: 0x0 }
  - { offset: 0x117BC, size: 0x8, addend: 0x0, symName: _.str.6, symObjAddr: 0x15BC0, symBinAddr: 0x100080800, symSize: 0x0 }
  - { offset: 0x117D9, size: 0x8, addend: 0x0, symName: _.str.7, symObjAddr: 0x15BE0, symBinAddr: 0x100080820, symSize: 0x0 }
  - { offset: 0x117EB, size: 0x8, addend: 0x0, symName: _.str.15, symObjAddr: 0x15C20, symBinAddr: 0x100080860, symSize: 0x0 }
  - { offset: 0x12560, size: 0x8, addend: 0x0, symName: __ZNSt3__16__math5isnanB8ne180100EUa9enable_ifIXLb1EEEd, symObjAddr: 0x3858, symBinAddr: 0x100028654, symSize: 0x1C }
  - { offset: 0x1258C, size: 0x8, addend: 0x0, symName: __ZNSt3__16__math5isinfB8ne180100EUa9enable_ifIXLb1EEEd, symObjAddr: 0x4AB8, symBinAddr: 0x100029300, symSize: 0x28 }
  - { offset: 0x125FD, size: 0x8, addend: 0x0, symName: __ZNSt3__1neB8ne180100IPdEEbRKNS_11__wrap_iterIT_EES6_, symObjAddr: 0x437C, symBinAddr: 0x100028BC4, symSize: 0xC4 }
  - { offset: 0x12640, size: 0x8, addend: 0x0, symName: __ZNSt3__111max_elementB8ne180100INS_11__wrap_iterIPdEEEET_S4_S4_, symObjAddr: 0x46DC, symBinAddr: 0x100028F24, symSize: 0x3DC }
  - { offset: 0x1268B, size: 0x8, addend: 0x0, symName: __ZNSt3__114__construct_atB8ne180100IdJEPdEEPT_S3_DpOT0_, symObjAddr: 0x9400, symBinAddr: 0x100029E68, symSize: 0x24 }
  - { offset: 0x126CA, size: 0x8, addend: 0x0, symName: __ZNSt3__112construct_atB8ne180100IdJEPdEEPT_S3_DpOT0_, symObjAddr: 0x9424, symBinAddr: 0x100029E8C, symSize: 0xB0 }
  - { offset: 0x12709, size: 0x8, addend: 0x0, symName: __ZNSt3__1eqB8ne180100IPdEEbRKNS_11__wrap_iterIT_EES6_, symObjAddr: 0xADC4, symBinAddr: 0x10002A2C0, symSize: 0x9C }
  - { offset: 0x1274C, size: 0x8, addend: 0x0, symName: __ZNSt3__111max_elementB8ne180100INS_11__wrap_iterIPdEENS_6__lessIvvEEEET_S6_S6_T0_, symObjAddr: 0xAF0C, symBinAddr: 0x10002A408, symSize: 0x3F0 }
  - { offset: 0x127B3, size: 0x8, addend: 0x0, symName: __ZNSt3__113__max_elementB8ne180100IRNS_6__lessIvvEENS_11__wrap_iterIPdEEEET0_S7_S7_T_, symObjAddr: 0xB2FC, symBinAddr: 0x10002A7F8, symSize: 0x494 }
  - { offset: 0x13453, size: 0x8, addend: 0x0, symName: __Z4reluRNSt3__16vectorIdNS_9allocatorIdEEEE, symObjAddr: 0x0, symBinAddr: 0x100025138, symSize: 0x440 }
  - { offset: 0x134AB, size: 0x8, addend: 0x0, symName: __ZNSt3__16vectorIdNS_9allocatorIdEEEC1Em, symObjAddr: 0x538, symBinAddr: 0x100025578, symSize: 0x80 }
  - { offset: 0x134E5, size: 0x8, addend: 0x0, symName: __Z15derivative_reluRNSt3__16vectorIdNS_9allocatorIdEEEE, symObjAddr: 0x7FC, symBinAddr: 0x1000255F8, symSize: 0x35C }
  - { offset: 0x1353C, size: 0x8, addend: 0x0, symName: __Z21derivative_leaky_reluRNSt3__16vectorIdNS_9allocatorIdEEEEd, symObjAddr: 0xB58, symBinAddr: 0x100025954, symSize: 0x370 }
  - { offset: 0x135A1, size: 0x8, addend: 0x0, symName: __Z7sigmoidRNSt3__16vectorIdNS_9allocatorIdEEEE, symObjAddr: 0xEC8, symBinAddr: 0x100025CC4, symSize: 0x358 }
  - { offset: 0x135F8, size: 0x8, addend: 0x0, symName: __Z18derivative_sigmoidRNSt3__16vectorIdNS_9allocatorIdEEEE, symObjAddr: 0x1220, symBinAddr: 0x10002601C, symSize: 0x6A0 }
  - { offset: 0x1365C, size: 0x8, addend: 0x0, symName: __Z7softmaxRNSt3__16vectorIdNS_9allocatorIdEEEE, symObjAddr: 0x18C0, symBinAddr: 0x1000266BC, symSize: 0x1F98 }
  - { offset: 0x137EC, size: 0x8, addend: 0x0, symName: __ZNSt3__16vectorIdNS_9allocatorIdEEE5beginB8ne180100Ev, symObjAddr: 0x3E28, symBinAddr: 0x100028670, symSize: 0x2A8 }
  - { offset: 0x13815, size: 0x8, addend: 0x0, symName: __ZNSt3__16vectorIdNS_9allocatorIdEEE3endB8ne180100Ev, symObjAddr: 0x40D0, symBinAddr: 0x100028918, symSize: 0x2AC }
  - { offset: 0x1383E, size: 0x8, addend: 0x0, symName: __ZNKSt3__111__wrap_iterIPdEdeB8ne180100Ev, symObjAddr: 0x4440, symBinAddr: 0x100028C88, symSize: 0xF4 }
  - { offset: 0x13864, size: 0x8, addend: 0x0, symName: __ZNSt3__111__wrap_iterIPdEppB8ne180100Ev, symObjAddr: 0x4534, symBinAddr: 0x100028D7C, symSize: 0x1A8 }
  - { offset: 0x1388A, size: 0x8, addend: 0x0, symName: __ZNSt3__16vectorIdNS_9allocatorIdEEEC2Em, symObjAddr: 0x4AE0, symBinAddr: 0x100029328, symSize: 0x550 }
  - { offset: 0x138E0, size: 0x8, addend: 0x0, symName: __ZNSt3__16vectorIdNS_9allocatorIdEEE18__construct_at_endEm, symObjAddr: 0x59C4, symBinAddr: 0x100029878, symSize: 0x5C8 }
  - { offset: 0x1397D, size: 0x8, addend: 0x0, symName: __ZNSt3__116allocator_traitsINS_9allocatorIdEEE9constructB8ne180100IdJEvvEEvRS2_PT_DpOT0_, symObjAddr: 0x8C44, symBinAddr: 0x100029E40, symSize: 0x28 }
  - { offset: 0x139BC, size: 0x8, addend: 0x0, symName: __ZNSt3__16vectorIdNS_9allocatorIdEEE11__make_iterB8ne180100EPd, symObjAddr: 0xAA40, symBinAddr: 0x100029F3C, symSize: 0x23C }
  - { offset: 0x139F3, size: 0x8, addend: 0x0, symName: __ZNSt3__111__wrap_iterIPdEC1B8ne180100ES1_, symObjAddr: 0xAC7C, symBinAddr: 0x10002A178, symSize: 0x80 }
  - { offset: 0x13A2B, size: 0x8, addend: 0x0, symName: __ZNSt3__111__wrap_iterIPdEC2B8ne180100ES1_, symObjAddr: 0xACFC, symBinAddr: 0x10002A1F8, symSize: 0xC8 }
  - { offset: 0x13A63, size: 0x8, addend: 0x0, symName: __ZNKSt3__111__wrap_iterIPdE4baseB8ne180100Ev, symObjAddr: 0xAE60, symBinAddr: 0x10002A35C, symSize: 0xAC }
  - { offset: 0x15949, size: 0x8, addend: 0x0, symName: __Z23categoricalCrossEntropyRNSt3__16vectorINS0_IdNS_9allocatorIdEEEENS1_IS3_EEEES6_, symObjAddr: 0x0, symBinAddr: 0x10002ACDC, symSize: 0x798 }
  - { offset: 0x1595E, size: 0x8, addend: 0x0, symName: _.str, symObjAddr: 0x13E0, symBinAddr: 0x100080880, symSize: 0x0 }
  - { offset: 0x1598E, size: 0x8, addend: 0x0, symName: _.str.1, symObjAddr: 0x1440, symBinAddr: 0x1000808E0, symSize: 0x0 }
  - { offset: 0x19C94, size: 0x8, addend: 0x0, symName: __Z23categoricalCrossEntropyRNSt3__16vectorINS0_IdNS_9allocatorIdEEEENS1_IS3_EEEES6_, symObjAddr: 0x0, symBinAddr: 0x10002ACDC, symSize: 0x798 }
  - { offset: 0x19D00, size: 0x8, addend: 0x0, symName: __ZNSt16invalid_argumentC1B8ne180100EPKc, symObjAddr: 0x890, symBinAddr: 0x10002B474, symSize: 0x80 }
  - { offset: 0x19D38, size: 0x8, addend: 0x0, symName: __ZNSt16invalid_argumentC2B8ne180100EPKc, symObjAddr: 0xCB0, symBinAddr: 0x10002B4F4, symSize: 0x120 }
  - { offset: 0x1BC67, size: 0x8, addend: 0x0, symName: _.str, symObjAddr: 0x2CFE0, symBinAddr: 0x100080940, symSize: 0x0 }
  - { offset: 0x1BC97, size: 0x8, addend: 0x0, symName: _.str.1, symObjAddr: 0x2D000, symBinAddr: 0x100080960, symSize: 0x0 }
  - { offset: 0x1BCA8, size: 0x8, addend: 0x0, symName: _.str.2, symObjAddr: 0x2D020, symBinAddr: 0x100080980, symSize: 0x0 }
  - { offset: 0x1BCC5, size: 0x8, addend: 0x0, symName: _.str.3, symObjAddr: 0x2D060, symBinAddr: 0x1000809C0, symSize: 0x0 }
  - { offset: 0x1BCE2, size: 0x8, addend: 0x0, symName: _.str.4, symObjAddr: 0x2D0C0, symBinAddr: 0x100080A20, symSize: 0x0 }
  - { offset: 0x1BCFF, size: 0x8, addend: 0x0, symName: _.str.5, symObjAddr: 0x2D0E0, symBinAddr: 0x100080A40, symSize: 0x0 }
  - { offset: 0x1BD1C, size: 0x8, addend: 0x0, symName: _.str.6, symObjAddr: 0x2D100, symBinAddr: 0x100080A60, symSize: 0x0 }
  - { offset: 0x1BD39, size: 0x8, addend: 0x0, symName: _.str.7, symObjAddr: 0x2D160, symBinAddr: 0x100080AC0, symSize: 0x0 }
  - { offset: 0x1BD56, size: 0x8, addend: 0x0, symName: _.str.8, symObjAddr: 0x2D1C0, symBinAddr: 0x100080B20, symSize: 0x0 }
  - { offset: 0x1BD73, size: 0x8, addend: 0x0, symName: _.str.9, symObjAddr: 0x2D220, symBinAddr: 0x100080B80, symSize: 0x0 }
  - { offset: 0x1BD84, size: 0x8, addend: 0x0, symName: _.str.10, symObjAddr: 0x2D280, symBinAddr: 0x100080BE0, symSize: 0x0 }
  - { offset: 0x1BDA1, size: 0x8, addend: 0x0, symName: _.str.11, symObjAddr: 0x2D2C0, symBinAddr: 0x100080C20, symSize: 0x0 }
  - { offset: 0x1BDBE, size: 0x8, addend: 0x0, symName: _.str.12, symObjAddr: 0x2D320, symBinAddr: 0x100080C80, symSize: 0x0 }
  - { offset: 0x1BDDB, size: 0x8, addend: 0x0, symName: _.str.13, symObjAddr: 0x2D380, symBinAddr: 0x100080CE0, symSize: 0x0 }
  - { offset: 0x1BDF9, size: 0x8, addend: 0x0, symName: _.str.14, symObjAddr: 0x2D3E0, symBinAddr: 0x100080D40, symSize: 0x0 }
  - { offset: 0x1BE17, size: 0x8, addend: 0x0, symName: _.str.15, symObjAddr: 0x2D420, symBinAddr: 0x100080D80, symSize: 0x0 }
  - { offset: 0x1BE35, size: 0x8, addend: 0x0, symName: _.str.16, symObjAddr: 0x2D460, symBinAddr: 0x100080DC0, symSize: 0x0 }
  - { offset: 0x1BE53, size: 0x8, addend: 0x0, symName: _.str.17, symObjAddr: 0x2D480, symBinAddr: 0x100080DE0, symSize: 0x0 }
  - { offset: 0x1BE71, size: 0x8, addend: 0x0, symName: _.str.18, symObjAddr: 0x2D4C0, symBinAddr: 0x100080E20, symSize: 0x0 }
  - { offset: 0x1BE8F, size: 0x8, addend: 0x0, symName: _.str.19, symObjAddr: 0x2D500, symBinAddr: 0x100080E60, symSize: 0x0 }
  - { offset: 0x1BEA1, size: 0x8, addend: 0x0, symName: _.str.20, symObjAddr: 0x2D520, symBinAddr: 0x100080E80, symSize: 0x0 }
  - { offset: 0x1BEB3, size: 0x8, addend: 0x0, symName: _.str.21, symObjAddr: 0x2D540, symBinAddr: 0x100080EA0, symSize: 0x0 }
  - { offset: 0x1BED1, size: 0x8, addend: 0x0, symName: _.str.22, symObjAddr: 0x2D5A0, symBinAddr: 0x100080F00, symSize: 0x0 }
  - { offset: 0x1BEE3, size: 0x8, addend: 0x0, symName: _.str.23, symObjAddr: 0x2D600, symBinAddr: 0x100080F60, symSize: 0x0 }
  - { offset: 0x1BEF5, size: 0x8, addend: 0x0, symName: _.str.33, symObjAddr: 0x2D640, symBinAddr: 0x100080FA0, symSize: 0x0 }
  - { offset: 0x20C18, size: 0x8, addend: 0x0, symName: __ZNSt3__1neB8ne180100IPKNS_6vectorIdNS_9allocatorIdEEEEEEbRKNS_11__wrap_iterIT_EESB_, symObjAddr: 0xD8C, symBinAddr: 0x10002C3F0, symSize: 0xC4 }
  - { offset: 0x20C5B, size: 0x8, addend: 0x0, symName: __ZNSt3__1lsB8ne180100IcNS_11char_traitsIcEEEERNS_13basic_ostreamIT_T0_EES7_RKNS_8__iom_t6E, symObjAddr: 0x1720, symBinAddr: 0x10002C5A8, symSize: 0x31C }
  - { offset: 0x20CA7, size: 0x8, addend: 0x0, symName: __ZNSt3__14setwB8ne180100Ei, symObjAddr: 0x1A3C, symBinAddr: 0x10002C8C4, symSize: 0x218 }
  - { offset: 0x20CD4, size: 0x8, addend: 0x0, symName: __ZNSt3__1eqB8ne180100IPKNS_6vectorIdNS_9allocatorIdEEEEEEbRKNS_11__wrap_iterIT_EESB_, symObjAddr: 0xC55C, symBinAddr: 0x100036450, symSize: 0x9C }
  - { offset: 0x21C0F, size: 0x8, addend: 0x0, symName: __Z7print2DRKNSt3__16vectorINS0_IdNS_9allocatorIdEEEENS1_IS3_EEEE, symObjAddr: 0x0, symBinAddr: 0x10002B664, symSize: 0x838 }
  - { offset: 0x21CF0, size: 0x8, addend: 0x0, symName: __ZNKSt3__16vectorINS0_IdNS_9allocatorIdEEEENS1_IS3_EEE5beginB8ne180100Ev, symObjAddr: 0x838, symBinAddr: 0x10002BE9C, symSize: 0x2A8 }
  - { offset: 0x21D19, size: 0x8, addend: 0x0, symName: __ZNKSt3__16vectorINS0_IdNS_9allocatorIdEEEENS1_IS3_EEE3endB8ne180100Ev, symObjAddr: 0xAE0, symBinAddr: 0x10002C144, symSize: 0x2AC }
  - { offset: 0x21D42, size: 0x8, addend: 0x0, symName: __ZNKSt3__111__wrap_iterIPKNS_6vectorIdNS_9allocatorIdEEEEEdeB8ne180100Ev, symObjAddr: 0xE50, symBinAddr: 0x10002C4B4, symSize: 0xF4 }
  - { offset: 0x21D68, size: 0x8, addend: 0x0, symName: __ZNSt3__111__wrap_iterIPKNS_6vectorIdNS_9allocatorIdEEEEEppB8ne180100Ev, symObjAddr: 0x1DFC, symBinAddr: 0x10002CADC, symSize: 0x1A8 }
  - { offset: 0x21D8D, size: 0x8, addend: 0x0, symName: __Z7print1DRKNSt3__16vectorIdNS_9allocatorIdEEEE, symObjAddr: 0x1FA4, symBinAddr: 0x10002CC84, symSize: 0x5CC }
  - { offset: 0x21E11, size: 0x8, addend: 0x0, symName: __Z9transposeRNSt3__16vectorINS0_IdNS_9allocatorIdEEEENS1_IS3_EEEE, symObjAddr: 0x2A54, symBinAddr: 0x10002D250, symSize: 0x7B4 }
  - { offset: 0x21E9E, size: 0x8, addend: 0x0, symName: __Z6matmulRNSt3__16vectorINS0_IdNS_9allocatorIdEEEENS1_IS3_EEEES6_, symObjAddr: 0x3990, symBinAddr: 0x10002DA04, symSize: 0x107C }
  - { offset: 0x21F75, size: 0x8, addend: 0x0, symName: __Z16matmulTransposeWRNSt3__16vectorINS0_IdNS_9allocatorIdEEEENS1_IS3_EEEES6_, symObjAddr: 0x4A94, symBinAddr: 0x10002EA80, symSize: 0xC9C }
  - { offset: 0x2205A, size: 0x8, addend: 0x0, symName: __Z18forwardPropagationRNSt3__16vectorINS0_IdNS_9allocatorIdEEEENS1_IS3_EEEES6_RS3_i, symObjAddr: 0x5828, symBinAddr: 0x10002F71C, symSize: 0x15C4 }
  - { offset: 0x2218A, size: 0x8, addend: 0x0, symName: __ZNSt3__16vectorIdNS_9allocatorIdEEEaSB8ne180100EOS3_, symObjAddr: 0x6DEC, symBinAddr: 0x100030CE0, symSize: 0x104 }
  - { offset: 0x221C1, size: 0x8, addend: 0x0, symName: __ZNSt3__16vectorINS0_IdNS_9allocatorIdEEEENS1_IS3_EEEaSB8ne180100EOS5_, symObjAddr: 0x6EF0, symBinAddr: 0x100030DE4, symSize: 0x104 }
  - { offset: 0x221F7, size: 0x8, addend: 0x0, symName: __Z8backPropNSt3__16vectorINS0_IdNS_9allocatorIdEEEENS1_IS3_EEEES5_RS5_S6_RS3_i, symObjAddr: 0x6FF4, symBinAddr: 0x100030EE8, symSize: 0x16E0 }
  - { offset: 0x22366, size: 0x8, addend: 0x0, symName: __Z16updateWeightBiasRNSt3__16vectorINS0_IdNS_9allocatorIdEEEENS1_IS3_EEEERS3_S6_S6_d, symObjAddr: 0x86D4, symBinAddr: 0x1000325C8, symSize: 0xE90 }
  - { offset: 0x22429, size: 0x8, addend: 0x0, symName: __Z27backPropagationSingleSampleRNSt3__16vectorINS0_IdNS_9allocatorIdEEEENS1_IS3_EEEES6_RS3_S6_S6_id, symObjAddr: 0x9564, symBinAddr: 0x100033458, symSize: 0x2C74 }
  - { offset: 0x22669, size: 0x8, addend: 0x0, symName: __ZNKSt3__16vectorINS0_IdNS_9allocatorIdEEEENS1_IS3_EEE11__make_iterB8ne180100EPKS3_, symObjAddr: 0xC1D8, symBinAddr: 0x1000360CC, symSize: 0x23C }
  - { offset: 0x226A0, size: 0x8, addend: 0x0, symName: __ZNSt3__111__wrap_iterIPKNS_6vectorIdNS_9allocatorIdEEEEEC1B8ne180100ES6_, symObjAddr: 0xC414, symBinAddr: 0x100036308, symSize: 0x80 }
  - { offset: 0x226D8, size: 0x8, addend: 0x0, symName: __ZNSt3__111__wrap_iterIPKNS_6vectorIdNS_9allocatorIdEEEEEC2B8ne180100ES6_, symObjAddr: 0xC494, symBinAddr: 0x100036388, symSize: 0xC8 }
  - { offset: 0x22710, size: 0x8, addend: 0x0, symName: __ZNKSt3__111__wrap_iterIPKNS_6vectorIdNS_9allocatorIdEEEEE4baseB8ne180100Ev, symObjAddr: 0xC5F8, symBinAddr: 0x1000364EC, symSize: 0xAC }
  - { offset: 0x22736, size: 0x8, addend: 0x0, symName: __ZNSt3__18__iom_t6C1B8ne180100Ei, symObjAddr: 0xCB70, symBinAddr: 0x100036598, symSize: 0x80 }
  - { offset: 0x2276E, size: 0x8, addend: 0x0, symName: __ZNSt3__18__iom_t6C2B8ne180100Ei, symObjAddr: 0xCBF0, symBinAddr: 0x100036618, symSize: 0xF0 }
  - { offset: 0x227E2, size: 0x8, addend: 0x0, symName: __ZNSt3__16vectorIdNS_9allocatorIdEEE13__move_assignERS3_NS_17integral_constantIbLb1EEE, symObjAddr: 0x1CB8C, symBinAddr: 0x100036708, symSize: 0x4FC }
  - { offset: 0x22824, size: 0x8, addend: 0x0, symName: __ZNSt3__16vectorIdNS_9allocatorIdEEE13__vdeallocateEv, symObjAddr: 0x1D088, symBinAddr: 0x100036C04, symSize: 0x244 }
  - { offset: 0x2284C, size: 0x8, addend: 0x0, symName: __ZNSt3__16vectorIdNS_9allocatorIdEEE19__move_assign_allocB8ne180100ERS3_, symObjAddr: 0x1D2CC, symBinAddr: 0x100036E48, symSize: 0xBC }
  - { offset: 0x22881, size: 0x8, addend: 0x0, symName: __ZNSt3__16vectorIdNS_9allocatorIdEEE5clearB8ne180100Ev, symObjAddr: 0x1D388, symBinAddr: 0x100036F04, symSize: 0x88 }
  - { offset: 0x228B6, size: 0x8, addend: 0x0, symName: __ZNSt3__16vectorIdNS_9allocatorIdEEE19__move_assign_allocB8ne180100ERS3_NS_17integral_constantIbLb1EEE, symObjAddr: 0x1D410, symBinAddr: 0x100036F8C, symSize: 0xA4 }
  - { offset: 0x228F6, size: 0x8, addend: 0x0, symName: __ZNSt3__16vectorINS0_IdNS_9allocatorIdEEEENS1_IS3_EEE13__move_assignERS5_NS_17integral_constantIbLb1EEE, symObjAddr: 0x1D4B4, symBinAddr: 0x100037030, symSize: 0x4FC }
  - { offset: 0x22938, size: 0x8, addend: 0x0, symName: __ZNSt3__16vectorINS0_IdNS_9allocatorIdEEEENS1_IS3_EEE13__vdeallocateEv, symObjAddr: 0x1D9B0, symBinAddr: 0x10003752C, symSize: 0x244 }
  - { offset: 0x22960, size: 0x8, addend: 0x0, symName: __ZNSt3__16vectorINS0_IdNS_9allocatorIdEEEENS1_IS3_EEE19__move_assign_allocB8ne180100ERS5_, symObjAddr: 0x1DBF4, symBinAddr: 0x100037770, symSize: 0xBC }
  - { offset: 0x22995, size: 0x8, addend: 0x0, symName: __ZNSt3__16vectorINS0_IdNS_9allocatorIdEEEENS1_IS3_EEE5clearB8ne180100Ev, symObjAddr: 0x1DCB0, symBinAddr: 0x10003782C, symSize: 0x88 }
  - { offset: 0x229CA, size: 0x8, addend: 0x0, symName: __ZNSt3__16vectorINS0_IdNS_9allocatorIdEEEENS1_IS3_EEE19__move_assign_allocB8ne180100ERS5_NS_17integral_constantIbLb1EEE, symObjAddr: 0x1DD38, symBinAddr: 0x1000378B4, symSize: 0xA4 }
  - { offset: 0x2490B, size: 0x8, addend: 0x0, symName: _.str, symObjAddr: 0x39EA0, symBinAddr: 0x100080FC0, symSize: 0x0 }
  - { offset: 0x2493B, size: 0x8, addend: 0x0, symName: _.str.1, symObjAddr: 0x39EE0, symBinAddr: 0x100081000, symSize: 0x0 }
  - { offset: 0x24959, size: 0x8, addend: 0x0, symName: _.str.9, symObjAddr: 0x39F20, symBinAddr: 0x100081040, symSize: 0x0 }
  - { offset: 0x24976, size: 0x8, addend: 0x0, symName: _.str.22, symObjAddr: 0x39F40, symBinAddr: 0x100081060, symSize: 0x0 }
  - { offset: 0x2A93F, size: 0x8, addend: 0x0, symName: __ZNSt3__17advanceB8ne180100IPdllvEEvRT_T0_, symObjAddr: 0x27A50, symBinAddr: 0x10004B17C, symSize: 0x80 }
  - { offset: 0x2A9AA, size: 0x8, addend: 0x0, symName: __ZNSt3__19__shuffleB8ne180100INS_17_ClassicAlgPolicyENS_11__wrap_iterIPmEES4_RNS_23mersenne_twister_engineIjLm32ELm624ELm397ELm31ELj2567483615ELm11ELj4294967295ELm7ELj2636928640ELm15ELj4022730752ELm18ELj1812433253EEEEET0_S8_T1_OT2_, symObjAddr: 0x28D50, symBinAddr: 0x10004C128, symSize: 0x654 }
  - { offset: 0x2B089, size: 0x8, addend: 0x0, symName: __ZNSt3__14iotaB8ne180100INS_11__wrap_iterIPmEEiEEvT_S4_T0_, symObjAddr: 0x28B0, symBinAddr: 0x100039CB0, symSize: 0x354 }
  - { offset: 0x2B1CD, size: 0x8, addend: 0x0, symName: __ZNSt3__17shuffleB8ne180100INS_11__wrap_iterIPmEERNS_23mersenne_twister_engineIjLm32ELm624ELm397ELm31ELj2567483615ELm11ELj4294967295ELm7ELj2636928640ELm15ELj4022730752ELm18ELj1812433253EEEEEvT_S7_OT0_, symObjAddr: 0x352C, symBinAddr: 0x10003A92C, symSize: 0x3F8 }
  - { offset: 0x2B22C, size: 0x8, addend: 0x0, symName: __ZNSt3__122__make_exception_guardB8ne180100INS_6vectorImNS_9allocatorImEEE16__destroy_vectorEEENS_28__exception_guard_exceptionsIT_EES7_, symObjAddr: 0x14D1C, symBinAddr: 0x10003BF2C, symSize: 0x2AC }
  - { offset: 0x2B265, size: 0x8, addend: 0x0, symName: __ZNSt3__119__allocate_at_leastB8ne180100INS_9allocatorImEEEENS_19__allocation_resultINS_16allocator_traitsIT_E7pointerEEERS5_m, symObjAddr: 0x16B4C, symBinAddr: 0x10003DD5C, symSize: 0x284 }
  - { offset: 0x2B2AA, size: 0x8, addend: 0x0, symName: __ZNSt3__112__to_addressB8ne180100ImEEPT_S2_, symObjAddr: 0x17C6C, symBinAddr: 0x10003EE7C, symSize: 0x14 }
  - { offset: 0x2B2DF, size: 0x8, addend: 0x0, symName: __ZNSt3__114__construct_atB8ne180100ImJEPmEEPT_S3_DpOT0_, symObjAddr: 0x1888C, symBinAddr: 0x10003FA9C, symSize: 0x24 }
  - { offset: 0x2B31E, size: 0x8, addend: 0x0, symName: __ZNSt3__112construct_atB8ne180100ImJEPmEEPT_S3_DpOT0_, symObjAddr: 0x188B0, symBinAddr: 0x10003FAC0, symSize: 0xAC }
  - { offset: 0x2B35D, size: 0x8, addend: 0x0, symName: __ZNSt3__112__destroy_atB8ne180100ImLi0EEEvPT_, symObjAddr: 0x19A6C, symBinAddr: 0x100040C7C, symSize: 0x10 }
  - { offset: 0x2B394, size: 0x8, addend: 0x0, symName: __ZNSt3__1neB8ne180100IPmEEbRKNS_11__wrap_iterIT_EES6_, symObjAddr: 0x19AF4, symBinAddr: 0x100040D04, symSize: 0xC4 }
  - { offset: 0x2B3D7, size: 0x8, addend: 0x0, symName: __ZNSt3__1eqB8ne180100IPmEEbRKNS_11__wrap_iterIT_EES6_, symObjAddr: 0x19E54, symBinAddr: 0x100041064, symSize: 0x9C }
  - { offset: 0x2B41A, size: 0x8, addend: 0x0, symName: __ZNSt3__122__make_exception_guardB8ne180100INS_6vectorINS1_INS1_IdNS_9allocatorIdEEEENS2_IS4_EEEENS2_IS6_EEE16__destroy_vectorEEENS_28__exception_guard_exceptionsIT_EESB_, symObjAddr: 0x1A8F8, symBinAddr: 0x100041B08, symSize: 0x2AC }
  - { offset: 0x2B453, size: 0x8, addend: 0x0, symName: __ZNSt3__119__allocate_at_leastB8ne180100INS_9allocatorINS_6vectorINS2_IdNS1_IdEEEENS1_IS4_EEEEEEEENS_19__allocation_resultINS_16allocator_traitsIT_E7pointerEEERSA_m, symObjAddr: 0x1C730, symBinAddr: 0x100043940, symSize: 0x284 }
  - { offset: 0x2B498, size: 0x8, addend: 0x0, symName: __ZNSt3__112__to_addressB8ne180100INS_6vectorINS1_IdNS_9allocatorIdEEEENS2_IS4_EEEEEEPT_S8_, symObjAddr: 0x1D86C, symBinAddr: 0x100044A7C, symSize: 0x14 }
  - { offset: 0x2B4CD, size: 0x8, addend: 0x0, symName: __ZNSt3__114__construct_atB8ne180100INS_6vectorINS1_IdNS_9allocatorIdEEEENS2_IS4_EEEEJEPS6_EEPT_S9_DpOT0_, symObjAddr: 0x1E4AC, symBinAddr: 0x1000455C4, symSize: 0x24 }
  - { offset: 0x2B50C, size: 0x8, addend: 0x0, symName: __ZNSt3__112construct_atB8ne180100INS_6vectorINS1_IdNS_9allocatorIdEEEENS2_IS4_EEEEJEPS6_EEPT_S9_DpOT0_, symObjAddr: 0x1E4D0, symBinAddr: 0x1000455E8, symSize: 0x70 }
  - { offset: 0x2B54B, size: 0x8, addend: 0x0, symName: __ZNSt3__112__destroy_atB8ne180100INS_6vectorINS1_IdNS_9allocatorIdEEEENS2_IS4_EEEELi0EEEvPT_, symObjAddr: 0x1FA64, symBinAddr: 0x100046B7C, symSize: 0x6C }
  - { offset: 0x2B582, size: 0x8, addend: 0x0, symName: __ZNSt3__114__construct_atB8ne180100INS_6vectorIdNS_9allocatorIdEEEEJEPS4_EEPT_S7_DpOT0_, symObjAddr: 0x2068C, symBinAddr: 0x1000477A4, symSize: 0x24 }
  - { offset: 0x2B5C1, size: 0x8, addend: 0x0, symName: __ZNSt3__112construct_atB8ne180100INS_6vectorIdNS_9allocatorIdEEEEJEPS4_EEPT_S7_DpOT0_, symObjAddr: 0x206B0, symBinAddr: 0x1000477C8, symSize: 0x70 }
  - { offset: 0x2B600, size: 0x8, addend: 0x0, symName: __ZNSt3__18distanceB8ne180100IPNS_6vectorIdNS_9allocatorIdEEEEEENS_15iterator_traitsIT_E15difference_typeES7_S7_, symObjAddr: 0x2115C, symBinAddr: 0x100048274, symSize: 0x2C }
  - { offset: 0x2B643, size: 0x8, addend: 0x0, symName: __ZNSt3__14nextB8ne180100IPNS_6vectorIdNS_9allocatorIdEEEELi0EEET_S6_NS_15iterator_traitsIS6_E15difference_typeE, symObjAddr: 0x21188, symBinAddr: 0x1000482A0, symSize: 0x230 }
  - { offset: 0x2B691, size: 0x8, addend: 0x0, symName: __ZNSt3__14copyB8ne180100IPNS_6vectorIdNS_9allocatorIdEEEES5_EET0_T_S7_S6_, symObjAddr: 0x213B8, symBinAddr: 0x1000484D0, symSize: 0x2AC }
  - { offset: 0x2B6EE, size: 0x8, addend: 0x0, symName: __ZNSt3__16__copyB8ne180100INS_17_ClassicAlgPolicyEPNS_6vectorIdNS_9allocatorIdEEEES6_S6_EENS_4pairIT0_T2_EES8_T1_S9_, symObjAddr: 0x21B1C, symBinAddr: 0x10004877C, symSize: 0x224 }
  - { offset: 0x2B8D4, size: 0x8, addend: 0x0, symName: __ZNSt3__123__dispatch_copy_or_moveB8ne180100INS_17_ClassicAlgPolicyENS_11__copy_loopIS1_EENS_14__copy_trivialEPNS_6vectorIdNS_9allocatorIdEEEES9_S9_EENS_4pairIT2_T4_EESB_T3_SC_, symObjAddr: 0x25484, symBinAddr: 0x100048E7C, symSize: 0x224 }
  - { offset: 0x2B955, size: 0x8, addend: 0x0, symName: __ZNSt3__121__unwrap_and_dispatchB8ne180100INS_10__overloadINS_11__copy_loopINS_17_ClassicAlgPolicyEEENS_14__copy_trivialEEEPNS_6vectorIdNS_9allocatorIdEEEESB_SB_Li0EEENS_4pairIT0_T2_EESD_T1_SE_, symObjAddr: 0x256A8, symBinAddr: 0x1000490A0, symSize: 0x62C }
  - { offset: 0x2BA40, size: 0x8, addend: 0x0, symName: __ZNSt3__19make_pairB8ne180100IPNS_6vectorIdNS_9allocatorIdEEEES5_EENS_4pairINS_18__unwrap_ref_decayIT_E4typeENS7_IT0_E4typeEEEOS8_OSB_, symObjAddr: 0x26330, symBinAddr: 0x100049D28, symSize: 0x298 }
  - { offset: 0x2BA91, size: 0x8, addend: 0x0, symName: __ZNSt3__114__rewrap_rangeB8ne180100IPNS_6vectorIdNS_9allocatorIdEEEES5_S5_EET0_S6_T1_, symObjAddr: 0x265C8, symBinAddr: 0x100049FC0, symSize: 0x2C }
  - { offset: 0x2BAE6, size: 0x8, addend: 0x0, symName: __ZNSt3__13maxB8ne180100ImEERKT_S3_S3_, symObjAddr: 0x266A8, symBinAddr: 0x10004A018, symSize: 0x104 }
  - { offset: 0x2BB29, size: 0x8, addend: 0x0, symName: __ZNSt3__13maxB8ne180100ImNS_6__lessIvvEEEERKT_S5_S5_T0_, symObjAddr: 0x267AC, symBinAddr: 0x10004A11C, symSize: 0x2B8 }
  - { offset: 0x2BB89, size: 0x8, addend: 0x0, symName: __ZNSt3__110__distanceB8ne180100IPNS_6vectorIdNS_9allocatorIdEEEEEENS_15iterator_traitsIT_E15difference_typeES7_S7_NS_26random_access_iterator_tagE, symObjAddr: 0x26A64, symBinAddr: 0x10004A3D4, symSize: 0x28 }
  - { offset: 0x2BBD6, size: 0x8, addend: 0x0, symName: __ZNSt3__18distanceB8ne180100IPdEENS_15iterator_traitsIT_E15difference_typeES3_S3_, symObjAddr: 0x270D4, symBinAddr: 0x10004AA44, symSize: 0x2C }
  - { offset: 0x2BC19, size: 0x8, addend: 0x0, symName: __ZNSt3__14nextB8ne180100IPdLi0EEET_S2_NS_15iterator_traitsIS2_E15difference_typeE, symObjAddr: 0x27100, symBinAddr: 0x10004AA70, symSize: 0x230 }
  - { offset: 0x2BC67, size: 0x8, addend: 0x0, symName: __ZNSt3__19__advanceB8ne180100IPdEEvRT_NS_15iterator_traitsIS2_E15difference_typeENS_26random_access_iterator_tagE, symObjAddr: 0x27AD0, symBinAddr: 0x10004B1FC, symSize: 0x19C }
  - { offset: 0x2BCB0, size: 0x8, addend: 0x0, symName: __ZNSt3__110__distanceB8ne180100IPdEENS_15iterator_traitsIT_E15difference_typeES3_S3_NS_26random_access_iterator_tagE, symObjAddr: 0x27CF4, symBinAddr: 0x10004B398, symSize: 0x28 }
  - { offset: 0x2BD5B, size: 0x8, addend: 0x0, symName: __ZNSt3__1miB8ne180100IPmS1_EEDTmicldtfp_4baseEcldtfp0_4baseEERKNS_11__wrap_iterIT_EERKNS3_IT0_EE, symObjAddr: 0x29668, symBinAddr: 0x10004CA40, symSize: 0x9C }
  - { offset: 0x2BDA7, size: 0x8, addend: 0x0, symName: __ZNSt3__1ltB8ne180100IPmEEbRKNS_11__wrap_iterIT_EES6_, symObjAddr: 0x29930, symBinAddr: 0x10004CD08, symSize: 0x9C }
  - { offset: 0x2BDEA, size: 0x8, addend: 0x0, symName: __ZNSt3__113__countl_zeroB8ne180100ImEEiT_, symObjAddr: 0x2A7F8, symBinAddr: 0x10004DBD0, symSize: 0x8C }
  - { offset: 0x2BE1F, size: 0x8, addend: 0x0, symName: __ZNSt3__112__libcpp_clzB8ne180100Em, symObjAddr: 0x2CCE0, symBinAddr: 0x1000500B8, symSize: 0x50 }
  - { offset: 0x2BE4B, size: 0x8, addend: 0x0, symName: __ZNSt3__19iter_swapB8ne180100INS_11__wrap_iterIPmEES3_EEvT_T0_, symObjAddr: 0x2CE40, symBinAddr: 0x100050218, symSize: 0x2F8 }
  - { offset: 0x2BE9B, size: 0x8, addend: 0x0, symName: __ZNSt3__14swapB8ne180100ImEENS_9enable_ifIXaasr21is_move_constructibleIT_EE5valuesr18is_move_assignableIS2_EE5valueEvE4typeERS2_S5_, symObjAddr: 0x2D138, symBinAddr: 0x100050510, symSize: 0x1C0 }
  - { offset: 0x2D105, size: 0x8, addend: 0x0, symName: __ZNSt3__124uniform_int_distributionIlEclINS_23mersenne_twister_engineIjLm32ELm624ELm397ELm31ELj2567483615ELm11ELj4294967295ELm7ELj2636928640ELm15ELj4022730752ELm18ELj1812433253EEEEElRT_RKNS1_10param_typeE, symObjAddr: 0x299CC, symBinAddr: 0x10004CDA4, symSize: 0x574 }
  - { offset: 0x2D1C3, size: 0x8, addend: 0x0, symName: _main, symObjAddr: 0x0, symBinAddr: 0x1000379A8, symSize: 0x2208 }
  - { offset: 0x2D46E, size: 0x8, addend: 0x0, symName: __ZNSt3__112basic_stringIcNS_11char_traitsIcEENS_9allocatorIcEEEC1B8ne180100ILi0EEEPKc, symObjAddr: 0x27B0, symBinAddr: 0x100039BB0, symSize: 0x80 }
  - { offset: 0x2D4AD, size: 0x8, addend: 0x0, symName: __ZNSt3__16vectorImNS_9allocatorImEEEC1Em, symObjAddr: 0x2830, symBinAddr: 0x100039C30, symSize: 0x80 }
  - { offset: 0x2D4E8, size: 0x8, addend: 0x0, symName: __ZNSt3__16vectorImNS_9allocatorImEEE5beginB8ne180100Ev, symObjAddr: 0x2C04, symBinAddr: 0x10003A004, symSize: 0x2A8 }
  - { offset: 0x2D511, size: 0x8, addend: 0x0, symName: __ZNSt3__16vectorImNS_9allocatorImEEE3endB8ne180100Ev, symObjAddr: 0x2EAC, symBinAddr: 0x10003A2AC, symSize: 0x2AC }
  - { offset: 0x2D553, size: 0x8, addend: 0x0, symName: __ZNSt3__113random_deviceC1B8ne180100Ev, symObjAddr: 0x3158, symBinAddr: 0x10003A558, symSize: 0x354 }
  - { offset: 0x2D57E, size: 0x8, addend: 0x0, symName: __ZNSt3__123mersenne_twister_engineIjLm32ELm624ELm397ELm31ELj2567483615ELm11ELj4294967295ELm7ELj2636928640ELm15ELj4022730752ELm18ELj1812433253EEC1B8ne180100Ej, symObjAddr: 0x34AC, symBinAddr: 0x10003A8AC, symSize: 0x80 }
  - { offset: 0x2D5B6, size: 0x8, addend: 0x0, symName: __ZNSt3__16vectorINS0_INS0_IdNS_9allocatorIdEEEENS1_IS3_EEEENS1_IS5_EEEC1Em, symObjAddr: 0x3924, symBinAddr: 0x10003AD24, symSize: 0x80 }
  - { offset: 0x2D5F1, size: 0x8, addend: 0x0, symName: __ZNSt3__16vectorINS0_IdNS_9allocatorIdEEEENS1_IS3_EEEC1Em, symObjAddr: 0x39A4, symBinAddr: 0x10003ADA4, symSize: 0x80 }
  - { offset: 0x2D62C, size: 0x8, addend: 0x0, symName: __ZNSt3__16vectorImNS_9allocatorImEEEixB8ne180100Em, symObjAddr: 0x3A24, symBinAddr: 0x10003AE24, symSize: 0x1CC }
  - { offset: 0x2D663, size: 0x8, addend: 0x0, symName: __ZNSt3__16vectorINS0_INS0_IdNS_9allocatorIdEEEENS1_IS3_EEEENS1_IS5_EEEixB8ne180100Em, symObjAddr: 0x3BF0, symBinAddr: 0x10003AFF0, symSize: 0x1D4 }
  - { offset: 0x2D69A, size: 0x8, addend: 0x0, symName: __ZNSt3__16vectorINS0_IdNS_9allocatorIdEEEENS1_IS3_EEEaSB8ne180100ERKS5_, symObjAddr: 0x3DC4, symBinAddr: 0x10003B1C4, symSize: 0x218 }
  - { offset: 0x2D6D1, size: 0x8, addend: 0x0, symName: __ZNSt3__16vectorIdNS_9allocatorIdEEEaSB8ne180100ERKS3_, symObjAddr: 0x3FDC, symBinAddr: 0x10003B3DC, symSize: 0x218 }
  - { offset: 0x2D708, size: 0x8, addend: 0x0, symName: __ZNSt3__16vectorINS0_INS0_IdNS_9allocatorIdEEEENS1_IS3_EEEENS1_IS5_EEED1B8ne180100Ev, symObjAddr: 0x426C, symBinAddr: 0x10003B5F4, symSize: 0x78 }
  - { offset: 0x2D732, size: 0x8, addend: 0x0, symName: __ZNSt3__16vectorImNS_9allocatorImEEED1B8ne180100Ev, symObjAddr: 0x42E4, symBinAddr: 0x10003B66C, symSize: 0x78 }
  - { offset: 0x2D7BC, size: 0x8, addend: 0x0, symName: __ZNSt3__112basic_stringIcNS_11char_traitsIcEENS_9allocatorIcEEEC2B8ne180100ILi0EEEPKc, symObjAddr: 0x1412C, symBinAddr: 0x10003B6E4, symSize: 0x270 }
  - { offset: 0x2D7FD, size: 0x8, addend: 0x0, symName: __ZNSt3__16vectorImNS_9allocatorImEEEC2Em, symObjAddr: 0x14744, symBinAddr: 0x10003B954, symSize: 0x550 }
  - { offset: 0x2D853, size: 0x8, addend: 0x0, symName: __ZNSt3__117__compressed_pairIPmNS_9allocatorImEEEC1B8ne180100IDnNS_18__default_init_tagEEEOT_OT0_, symObjAddr: 0x14C94, symBinAddr: 0x10003BEA4, symSize: 0x88 }
  - { offset: 0x2D8AB, size: 0x8, addend: 0x0, symName: __ZNSt3__16vectorImNS_9allocatorImEEE16__destroy_vectorC1B8ne180100ERS3_, symObjAddr: 0x14FC8, symBinAddr: 0x10003C1D8, symSize: 0x80 }
  - { offset: 0x2D8E4, size: 0x8, addend: 0x0, symName: __ZNSt3__16vectorImNS_9allocatorImEEE11__vallocateB8ne180100Em, symObjAddr: 0x15048, symBinAddr: 0x10003C258, symSize: 0x5E0 }
  - { offset: 0x2D92E, size: 0x8, addend: 0x0, symName: __ZNSt3__16vectorImNS_9allocatorImEEE18__construct_at_endEm, symObjAddr: 0x15628, symBinAddr: 0x10003C838, symSize: 0x5C8 }
  - { offset: 0x2D9A8, size: 0x8, addend: 0x0, symName: __ZNSt3__128__exception_guard_exceptionsINS_6vectorImNS_9allocatorImEEE16__destroy_vectorEE10__completeB8ne180100Ev, symObjAddr: 0x15BF0, symBinAddr: 0x10003CE00, symSize: 0xD8 }
  - { offset: 0x2D9CE, size: 0x8, addend: 0x0, symName: __ZNSt3__128__exception_guard_exceptionsINS_6vectorImNS_9allocatorImEEE16__destroy_vectorEED1B8ne180100Ev, symObjAddr: 0x15CC8, symBinAddr: 0x10003CED8, symSize: 0x78 }
  - { offset: 0x2D9F8, size: 0x8, addend: 0x0, symName: __ZNSt3__117__compressed_pairIPmNS_9allocatorImEEEC2B8ne180100IDnNS_18__default_init_tagEEEOT_OT0_, symObjAddr: 0x15D40, symBinAddr: 0x10003CF50, symSize: 0x140 }
  - { offset: 0x2DA50, size: 0x8, addend: 0x0, symName: __ZNSt3__122__compressed_pair_elemIPmLi0ELb0EEC2B8ne180100IDnvEEOT_, symObjAddr: 0x15E80, symBinAddr: 0x10003D090, symSize: 0xBC }
  - { offset: 0x2DA92, size: 0x8, addend: 0x0, symName: __ZNSt3__122__compressed_pair_elemINS_9allocatorImEELi1ELb1EEC2B8ne180100ENS_18__default_init_tagE, symObjAddr: 0x15F3C, symBinAddr: 0x10003D14C, symSize: 0x84 }
  - { offset: 0x2DAC6, size: 0x8, addend: 0x0, symName: __ZNSt3__19allocatorImEC2B8ne180100Ev, symObjAddr: 0x15FC0, symBinAddr: 0x10003D1D0, symSize: 0x84 }
  - { offset: 0x2DAF0, size: 0x8, addend: 0x0, symName: __ZNSt3__116__non_trivial_ifILb1ENS_9allocatorImEEEC2B8ne180100Ev, symObjAddr: 0x16044, symBinAddr: 0x10003D254, symSize: 0x54 }
  - { offset: 0x2DB1A, size: 0x8, addend: 0x0, symName: __ZNSt3__128__exception_guard_exceptionsINS_6vectorImNS_9allocatorImEEE16__destroy_vectorEEC1B8ne180100ES5_, symObjAddr: 0x16098, symBinAddr: 0x10003D2A8, symSize: 0x284 }
  - { offset: 0x2DB57, size: 0x8, addend: 0x0, symName: __ZNSt3__128__exception_guard_exceptionsINS_6vectorImNS_9allocatorImEEE16__destroy_vectorEEC2B8ne180100ES5_, symObjAddr: 0x1631C, symBinAddr: 0x10003D52C, symSize: 0x2B4 }
  - { offset: 0x2DB94, size: 0x8, addend: 0x0, symName: __ZNSt3__16vectorImNS_9allocatorImEEE16__destroy_vectorC2B8ne180100ERS3_, symObjAddr: 0x165D0, symBinAddr: 0x10003D7E0, symSize: 0x108 }
  - { offset: 0x2DBCD, size: 0x8, addend: 0x0, symName: __ZNKSt3__16vectorImNS_9allocatorImEEE8max_sizeEv, symObjAddr: 0x166D8, symBinAddr: 0x10003D8E8, symSize: 0x3F4 }
  - { offset: 0x2DBF6, size: 0x8, addend: 0x0, symName: __ZNKSt3__16vectorImNS_9allocatorImEEE20__throw_length_errorB8ne180100Ev, symObjAddr: 0x16ACC, symBinAddr: 0x10003DCDC, symSize: 0x80 }
  - { offset: 0x2DC1C, size: 0x8, addend: 0x0, symName: __ZNSt3__16vectorImNS_9allocatorImEEE7__allocB8ne180100Ev, symObjAddr: 0x16DD0, symBinAddr: 0x10003DFE0, symSize: 0xE4 }
  - { offset: 0x2DC42, size: 0x8, addend: 0x0, symName: __ZNSt3__16vectorImNS_9allocatorImEEE9__end_capB8ne180100Ev, symObjAddr: 0x16EB4, symBinAddr: 0x10003E0C4, symSize: 0x100 }
  - { offset: 0x2DC68, size: 0x8, addend: 0x0, symName: __ZNKSt3__16vectorImNS_9allocatorImEEE14__annotate_newB8ne180100Em, symObjAddr: 0x16FB4, symBinAddr: 0x10003E1C4, symSize: 0x258 }
  - { offset: 0x2DCA7, size: 0x8, addend: 0x0, symName: __ZNSt3__116allocator_traitsINS_9allocatorImEEE8max_sizeB8ne180100IS2_vvEEmRKS2_, symObjAddr: 0x1720C, symBinAddr: 0x10003E41C, symSize: 0x54 }
  - { offset: 0x2DCD2, size: 0x8, addend: 0x0, symName: __ZNKSt3__16vectorImNS_9allocatorImEEE7__allocB8ne180100Ev, symObjAddr: 0x17260, symBinAddr: 0x10003E470, symSize: 0xE4 }
  - { offset: 0x2DCF8, size: 0x8, addend: 0x0, symName: __ZNKSt3__117__compressed_pairIPmNS_9allocatorImEEE6secondB8ne180100Ev, symObjAddr: 0x17344, symBinAddr: 0x10003E554, symSize: 0x108 }
  - { offset: 0x2DD1E, size: 0x8, addend: 0x0, symName: __ZNKSt3__122__compressed_pair_elemINS_9allocatorImEELi1ELb1EE5__getB8ne180100Ev, symObjAddr: 0x1744C, symBinAddr: 0x10003E65C, symSize: 0x74 }
  - { offset: 0x2DD44, size: 0x8, addend: 0x0, symName: __ZNSt3__19allocatorImE8allocateB8ne180100Em, symObjAddr: 0x174C0, symBinAddr: 0x10003E6D0, symSize: 0xCC }
  - { offset: 0x2DD78, size: 0x8, addend: 0x0, symName: __ZNSt3__117__compressed_pairIPmNS_9allocatorImEEE6secondB8ne180100Ev, symObjAddr: 0x1758C, symBinAddr: 0x10003E79C, symSize: 0x108 }
  - { offset: 0x2DD9E, size: 0x8, addend: 0x0, symName: __ZNSt3__122__compressed_pair_elemINS_9allocatorImEELi1ELb1EE5__getB8ne180100Ev, symObjAddr: 0x17694, symBinAddr: 0x10003E8A4, symSize: 0x74 }
  - { offset: 0x2DDC4, size: 0x8, addend: 0x0, symName: __ZNSt3__117__compressed_pairIPmNS_9allocatorImEEE5firstB8ne180100Ev, symObjAddr: 0x17708, symBinAddr: 0x10003E918, symSize: 0x124 }
  - { offset: 0x2DDEA, size: 0x8, addend: 0x0, symName: __ZNSt3__122__compressed_pair_elemIPmLi0ELb0EE5__getB8ne180100Ev, symObjAddr: 0x1782C, symBinAddr: 0x10003EA3C, symSize: 0xAC }
  - { offset: 0x2DE10, size: 0x8, addend: 0x0, symName: __ZNKSt3__16vectorImNS_9allocatorImEEE31__annotate_contiguous_containerB8ne180100EPKvS5_, symObjAddr: 0x178D8, symBinAddr: 0x10003EAE8, symSize: 0x1A0 }
  - { offset: 0x2DE72, size: 0x8, addend: 0x0, symName: __ZNKSt3__16vectorImNS_9allocatorImEEE4dataB8ne180100Ev, symObjAddr: 0x17A78, symBinAddr: 0x10003EC88, symSize: 0xB0 }
  - { offset: 0x2DE98, size: 0x8, addend: 0x0, symName: __ZNKSt3__16vectorImNS_9allocatorImEEE8capacityB8ne180100Ev, symObjAddr: 0x17B28, symBinAddr: 0x10003ED38, symSize: 0x144 }
  - { offset: 0x2DEBE, size: 0x8, addend: 0x0, symName: __ZNKSt3__16vectorImNS_9allocatorImEEE9__end_capB8ne180100Ev, symObjAddr: 0x17C80, symBinAddr: 0x10003EE90, symSize: 0x100 }
  - { offset: 0x2DEE4, size: 0x8, addend: 0x0, symName: __ZNKSt3__117__compressed_pairIPmNS_9allocatorImEEE5firstB8ne180100Ev, symObjAddr: 0x17D80, symBinAddr: 0x10003EF90, symSize: 0x124 }
  - { offset: 0x2DF0A, size: 0x8, addend: 0x0, symName: __ZNKSt3__122__compressed_pair_elemIPmLi0ELb0EE5__getB8ne180100Ev, symObjAddr: 0x17EA4, symBinAddr: 0x10003F0B4, symSize: 0xAC }
  - { offset: 0x2DF49, size: 0x8, addend: 0x0, symName: __ZNSt3__16vectorImNS_9allocatorImEEE21_ConstructTransactionC1B8ne180100ERS3_m, symObjAddr: 0x17F50, symBinAddr: 0x10003F160, symSize: 0x88 }
  - { offset: 0x2DF91, size: 0x8, addend: 0x0, symName: __ZNSt3__116allocator_traitsINS_9allocatorImEEE9constructB8ne180100ImJEvvEEvRS2_PT_DpOT0_, symObjAddr: 0x17FD8, symBinAddr: 0x10003F1E8, symSize: 0x28 }
  - { offset: 0x2DFD0, size: 0x8, addend: 0x0, symName: __ZNSt3__16vectorImNS_9allocatorImEEE21_ConstructTransactionD1B8ne180100Ev, symObjAddr: 0x18000, symBinAddr: 0x10003F210, symSize: 0x78 }
  - { offset: 0x2DFFA, size: 0x8, addend: 0x0, symName: __ZNSt3__16vectorImNS_9allocatorImEEE21_ConstructTransactionC2B8ne180100ERS3_m, symObjAddr: 0x18078, symBinAddr: 0x10003F288, symSize: 0x3D8 }
  - { offset: 0x2E042, size: 0x8, addend: 0x0, symName: __ZNKSt3__16vectorImNS_9allocatorImEEE19__annotate_increaseB8ne180100Em, symObjAddr: 0x18450, symBinAddr: 0x10003F660, symSize: 0x344 }
  - { offset: 0x2E077, size: 0x8, addend: 0x0, symName: __ZNKSt3__16vectorImNS_9allocatorImEEE4sizeB8ne180100Ev, symObjAddr: 0x18794, symBinAddr: 0x10003F9A4, symSize: 0xF8 }
  - { offset: 0x2E09D, size: 0x8, addend: 0x0, symName: __ZNSt3__16vectorImNS_9allocatorImEEE21_ConstructTransactionD2B8ne180100Ev, symObjAddr: 0x1895C, symBinAddr: 0x10003FB6C, symSize: 0x390 }
  - { offset: 0x2E0C7, size: 0x8, addend: 0x0, symName: __ZNKSt3__16vectorImNS_9allocatorImEEE17__annotate_shrinkB8ne180100Em, symObjAddr: 0x18CEC, symBinAddr: 0x10003FEFC, symSize: 0x258 }
  - { offset: 0x2E0FC, size: 0x8, addend: 0x0, symName: __ZNSt3__128__exception_guard_exceptionsINS_6vectorImNS_9allocatorImEEE16__destroy_vectorEED2B8ne180100Ev, symObjAddr: 0x18F44, symBinAddr: 0x100040154, symSize: 0x17C }
  - { offset: 0x2E126, size: 0x8, addend: 0x0, symName: __ZNSt3__16vectorImNS_9allocatorImEEE16__destroy_vectorclB8ne180100Ev, symObjAddr: 0x190C0, symBinAddr: 0x1000402D0, symSize: 0x43C }
  - { offset: 0x2E14C, size: 0x8, addend: 0x0, symName: __ZNSt3__16vectorImNS_9allocatorImEEE7__clearB8ne180100Ev, symObjAddr: 0x194FC, symBinAddr: 0x10004070C, symSize: 0xB0 }
  - { offset: 0x2E172, size: 0x8, addend: 0x0, symName: __ZNKSt3__16vectorImNS_9allocatorImEEE17__annotate_deleteB8ne180100Ev, symObjAddr: 0x195AC, symBinAddr: 0x1000407BC, symSize: 0x268 }
  - { offset: 0x2E198, size: 0x8, addend: 0x0, symName: __ZNSt3__116allocator_traitsINS_9allocatorImEEE10deallocateB8ne180100ERS2_Pmm, symObjAddr: 0x19814, symBinAddr: 0x100040A24, symSize: 0x34 }
  - { offset: 0x2E1DA, size: 0x8, addend: 0x0, symName: __ZNSt3__16vectorImNS_9allocatorImEEE22__base_destruct_at_endB8ne180100EPm, symObjAddr: 0x19848, symBinAddr: 0x100040A58, symSize: 0x1FC }
  - { offset: 0x2E21E, size: 0x8, addend: 0x0, symName: __ZNSt3__116allocator_traitsINS_9allocatorImEEE7destroyB8ne180100ImvvEEvRS2_PT_, symObjAddr: 0x19A44, symBinAddr: 0x100040C54, symSize: 0x28 }
  - { offset: 0x2E258, size: 0x8, addend: 0x0, symName: __ZNSt3__19allocatorImE10deallocateB8ne180100EPmm, symObjAddr: 0x19A7C, symBinAddr: 0x100040C8C, symSize: 0x78 }
  - { offset: 0x2E29A, size: 0x8, addend: 0x0, symName: __ZNKSt3__111__wrap_iterIPmEdeB8ne180100Ev, symObjAddr: 0x19BB8, symBinAddr: 0x100040DC8, symSize: 0xF4 }
  - { offset: 0x2E2C0, size: 0x8, addend: 0x0, symName: __ZNSt3__111__wrap_iterIPmEppB8ne180100Ev, symObjAddr: 0x19CAC, symBinAddr: 0x100040EBC, symSize: 0x1A8 }
  - { offset: 0x2E2E6, size: 0x8, addend: 0x0, symName: __ZNKSt3__111__wrap_iterIPmE4baseB8ne180100Ev, symObjAddr: 0x19EF0, symBinAddr: 0x100041100, symSize: 0xAC }
  - { offset: 0x2E30C, size: 0x8, addend: 0x0, symName: __ZNSt3__16vectorImNS_9allocatorImEEE11__make_iterB8ne180100EPm, symObjAddr: 0x19F9C, symBinAddr: 0x1000411AC, symSize: 0x23C }
  - { offset: 0x2E343, size: 0x8, addend: 0x0, symName: __ZNSt3__111__wrap_iterIPmEC1B8ne180100ES1_, symObjAddr: 0x1A1D8, symBinAddr: 0x1000413E8, symSize: 0x80 }
  - { offset: 0x2E37B, size: 0x8, addend: 0x0, symName: __ZNSt3__111__wrap_iterIPmEC2B8ne180100ES1_, symObjAddr: 0x1A258, symBinAddr: 0x100041468, symSize: 0xC8 }
  - { offset: 0x2E3B3, size: 0x8, addend: 0x0, symName: __ZNSt3__16vectorINS0_INS0_IdNS_9allocatorIdEEEENS1_IS3_EEEENS1_IS5_EEEC2Em, symObjAddr: 0x1A320, symBinAddr: 0x100041530, symSize: 0x550 }
  - { offset: 0x2E409, size: 0x8, addend: 0x0, symName: __ZNSt3__117__compressed_pairIPNS_6vectorINS1_IdNS_9allocatorIdEEEENS2_IS4_EEEENS2_IS6_EEEC1B8ne180100IDnNS_18__default_init_tagEEEOT_OT0_, symObjAddr: 0x1A870, symBinAddr: 0x100041A80, symSize: 0x88 }
  - { offset: 0x2E461, size: 0x8, addend: 0x0, symName: __ZNSt3__16vectorINS0_INS0_IdNS_9allocatorIdEEEENS1_IS3_EEEENS1_IS5_EEE16__destroy_vectorC1B8ne180100ERS7_, symObjAddr: 0x1ABA4, symBinAddr: 0x100041DB4, symSize: 0x80 }
  - { offset: 0x2E49A, size: 0x8, addend: 0x0, symName: __ZNSt3__16vectorINS0_INS0_IdNS_9allocatorIdEEEENS1_IS3_EEEENS1_IS5_EEE11__vallocateB8ne180100Em, symObjAddr: 0x1AC24, symBinAddr: 0x100041E34, symSize: 0x5E8 }
  - { offset: 0x2E4E4, size: 0x8, addend: 0x0, symName: __ZNSt3__16vectorINS0_INS0_IdNS_9allocatorIdEEEENS1_IS3_EEEENS1_IS5_EEE18__construct_at_endEm, symObjAddr: 0x1B20C, symBinAddr: 0x10004241C, symSize: 0x5C8 }
  - { offset: 0x2E55E, size: 0x8, addend: 0x0, symName: __ZNSt3__128__exception_guard_exceptionsINS_6vectorINS1_INS1_IdNS_9allocatorIdEEEENS2_IS4_EEEENS2_IS6_EEE16__destroy_vectorEE10__completeB8ne180100Ev, symObjAddr: 0x1B7D4, symBinAddr: 0x1000429E4, symSize: 0xD8 }
  - { offset: 0x2E584, size: 0x8, addend: 0x0, symName: __ZNSt3__128__exception_guard_exceptionsINS_6vectorINS1_INS1_IdNS_9allocatorIdEEEENS2_IS4_EEEENS2_IS6_EEE16__destroy_vectorEED1B8ne180100Ev, symObjAddr: 0x1B8AC, symBinAddr: 0x100042ABC, symSize: 0x78 }
  - { offset: 0x2E5AE, size: 0x8, addend: 0x0, symName: __ZNSt3__117__compressed_pairIPNS_6vectorINS1_IdNS_9allocatorIdEEEENS2_IS4_EEEENS2_IS6_EEEC2B8ne180100IDnNS_18__default_init_tagEEEOT_OT0_, symObjAddr: 0x1B924, symBinAddr: 0x100042B34, symSize: 0x140 }
  - { offset: 0x2E606, size: 0x8, addend: 0x0, symName: __ZNSt3__122__compressed_pair_elemIPNS_6vectorINS1_IdNS_9allocatorIdEEEENS2_IS4_EEEELi0ELb0EEC2B8ne180100IDnvEEOT_, symObjAddr: 0x1BA64, symBinAddr: 0x100042C74, symSize: 0xBC }
  - { offset: 0x2E648, size: 0x8, addend: 0x0, symName: __ZNSt3__122__compressed_pair_elemINS_9allocatorINS_6vectorINS2_IdNS1_IdEEEENS1_IS4_EEEEEELi1ELb1EEC2B8ne180100ENS_18__default_init_tagE, symObjAddr: 0x1BB20, symBinAddr: 0x100042D30, symSize: 0x84 }
  - { offset: 0x2E67C, size: 0x8, addend: 0x0, symName: __ZNSt3__19allocatorINS_6vectorINS1_IdNS0_IdEEEENS0_IS3_EEEEEC2B8ne180100Ev, symObjAddr: 0x1BBA4, symBinAddr: 0x100042DB4, symSize: 0x84 }
  - { offset: 0x2E6A6, size: 0x8, addend: 0x0, symName: __ZNSt3__116__non_trivial_ifILb1ENS_9allocatorINS_6vectorINS2_IdNS1_IdEEEENS1_IS4_EEEEEEEC2B8ne180100Ev, symObjAddr: 0x1BC28, symBinAddr: 0x100042E38, symSize: 0x54 }
  - { offset: 0x2E6D0, size: 0x8, addend: 0x0, symName: __ZNSt3__128__exception_guard_exceptionsINS_6vectorINS1_INS1_IdNS_9allocatorIdEEEENS2_IS4_EEEENS2_IS6_EEE16__destroy_vectorEEC1B8ne180100ES9_, symObjAddr: 0x1BC7C, symBinAddr: 0x100042E8C, symSize: 0x284 }
  - { offset: 0x2E70D, size: 0x8, addend: 0x0, symName: __ZNSt3__128__exception_guard_exceptionsINS_6vectorINS1_INS1_IdNS_9allocatorIdEEEENS2_IS4_EEEENS2_IS6_EEE16__destroy_vectorEEC2B8ne180100ES9_, symObjAddr: 0x1BF00, symBinAddr: 0x100043110, symSize: 0x2B4 }
  - { offset: 0x2E74A, size: 0x8, addend: 0x0, symName: __ZNSt3__16vectorINS0_INS0_IdNS_9allocatorIdEEEENS1_IS3_EEEENS1_IS5_EEE16__destroy_vectorC2B8ne180100ERS7_, symObjAddr: 0x1C1B4, symBinAddr: 0x1000433C4, symSize: 0x108 }
  - { offset: 0x2E783, size: 0x8, addend: 0x0, symName: __ZNKSt3__16vectorINS0_INS0_IdNS_9allocatorIdEEEENS1_IS3_EEEENS1_IS5_EEE8max_sizeEv, symObjAddr: 0x1C2BC, symBinAddr: 0x1000434CC, symSize: 0x3F4 }
  - { offset: 0x2E7AC, size: 0x8, addend: 0x0, symName: __ZNKSt3__16vectorINS0_INS0_IdNS_9allocatorIdEEEENS1_IS3_EEEENS1_IS5_EEE20__throw_length_errorB8ne180100Ev, symObjAddr: 0x1C6B0, symBinAddr: 0x1000438C0, symSize: 0x80 }
  - { offset: 0x2E7D2, size: 0x8, addend: 0x0, symName: __ZNSt3__16vectorINS0_INS0_IdNS_9allocatorIdEEEENS1_IS3_EEEENS1_IS5_EEE7__allocB8ne180100Ev, symObjAddr: 0x1C9B4, symBinAddr: 0x100043BC4, symSize: 0xE4 }
  - { offset: 0x2E7F8, size: 0x8, addend: 0x0, symName: __ZNSt3__16vectorINS0_INS0_IdNS_9allocatorIdEEEENS1_IS3_EEEENS1_IS5_EEE9__end_capB8ne180100Ev, symObjAddr: 0x1CA98, symBinAddr: 0x100043CA8, symSize: 0x100 }
  - { offset: 0x2E81E, size: 0x8, addend: 0x0, symName: __ZNKSt3__16vectorINS0_INS0_IdNS_9allocatorIdEEEENS1_IS3_EEEENS1_IS5_EEE14__annotate_newB8ne180100Em, symObjAddr: 0x1CB98, symBinAddr: 0x100043DA8, symSize: 0x268 }
  - { offset: 0x2E85D, size: 0x8, addend: 0x0, symName: __ZNSt3__116allocator_traitsINS_9allocatorINS_6vectorINS2_IdNS1_IdEEEENS1_IS4_EEEEEEE8max_sizeB8ne180100IS7_vvEEmRKS7_, symObjAddr: 0x1CE00, symBinAddr: 0x100044010, symSize: 0x54 }
  - { offset: 0x2E888, size: 0x8, addend: 0x0, symName: __ZNKSt3__16vectorINS0_INS0_IdNS_9allocatorIdEEEENS1_IS3_EEEENS1_IS5_EEE7__allocB8ne180100Ev, symObjAddr: 0x1CE54, symBinAddr: 0x100044064, symSize: 0xE4 }
  - { offset: 0x2E8AE, size: 0x8, addend: 0x0, symName: __ZNKSt3__117__compressed_pairIPNS_6vectorINS1_IdNS_9allocatorIdEEEENS2_IS4_EEEENS2_IS6_EEE6secondB8ne180100Ev, symObjAddr: 0x1CF38, symBinAddr: 0x100044148, symSize: 0x108 }
  - { offset: 0x2E8D4, size: 0x8, addend: 0x0, symName: __ZNKSt3__122__compressed_pair_elemINS_9allocatorINS_6vectorINS2_IdNS1_IdEEEENS1_IS4_EEEEEELi1ELb1EE5__getB8ne180100Ev, symObjAddr: 0x1D040, symBinAddr: 0x100044250, symSize: 0x74 }
  - { offset: 0x2E8FA, size: 0x8, addend: 0x0, symName: __ZNSt3__19allocatorINS_6vectorINS1_IdNS0_IdEEEENS0_IS3_EEEEE8allocateB8ne180100Em, symObjAddr: 0x1D0B4, symBinAddr: 0x1000442C4, symSize: 0xD0 }
  - { offset: 0x2E92E, size: 0x8, addend: 0x0, symName: __ZNSt3__117__compressed_pairIPNS_6vectorINS1_IdNS_9allocatorIdEEEENS2_IS4_EEEENS2_IS6_EEE6secondB8ne180100Ev, symObjAddr: 0x1D184, symBinAddr: 0x100044394, symSize: 0x108 }
  - { offset: 0x2E954, size: 0x8, addend: 0x0, symName: __ZNSt3__122__compressed_pair_elemINS_9allocatorINS_6vectorINS2_IdNS1_IdEEEENS1_IS4_EEEEEELi1ELb1EE5__getB8ne180100Ev, symObjAddr: 0x1D28C, symBinAddr: 0x10004449C, symSize: 0x74 }
  - { offset: 0x2E97A, size: 0x8, addend: 0x0, symName: __ZNSt3__117__compressed_pairIPNS_6vectorINS1_IdNS_9allocatorIdEEEENS2_IS4_EEEENS2_IS6_EEE5firstB8ne180100Ev, symObjAddr: 0x1D300, symBinAddr: 0x100044510, symSize: 0x124 }
  - { offset: 0x2E9A0, size: 0x8, addend: 0x0, symName: __ZNSt3__122__compressed_pair_elemIPNS_6vectorINS1_IdNS_9allocatorIdEEEENS2_IS4_EEEELi0ELb0EE5__getB8ne180100Ev, symObjAddr: 0x1D424, symBinAddr: 0x100044634, symSize: 0xAC }
  - { offset: 0x2E9C6, size: 0x8, addend: 0x0, symName: __ZNKSt3__16vectorINS0_INS0_IdNS_9allocatorIdEEEENS1_IS3_EEEENS1_IS5_EEE31__annotate_contiguous_containerB8ne180100EPKvS9_, symObjAddr: 0x1D4D0, symBinAddr: 0x1000446E0, symSize: 0x1A8 }
  - { offset: 0x2EA28, size: 0x8, addend: 0x0, symName: __ZNKSt3__16vectorINS0_INS0_IdNS_9allocatorIdEEEENS1_IS3_EEEENS1_IS5_EEE4dataB8ne180100Ev, symObjAddr: 0x1D678, symBinAddr: 0x100044888, symSize: 0xB0 }
  - { offset: 0x2EA4E, size: 0x8, addend: 0x0, symName: __ZNKSt3__16vectorINS0_INS0_IdNS_9allocatorIdEEEENS1_IS3_EEEENS1_IS5_EEE8capacityB8ne180100Ev, symObjAddr: 0x1D728, symBinAddr: 0x100044938, symSize: 0x144 }
  - { offset: 0x2EA74, size: 0x8, addend: 0x0, symName: __ZNKSt3__16vectorINS0_INS0_IdNS_9allocatorIdEEEENS1_IS3_EEEENS1_IS5_EEE9__end_capB8ne180100Ev, symObjAddr: 0x1D880, symBinAddr: 0x100044A90, symSize: 0x100 }
  - { offset: 0x2EA9A, size: 0x8, addend: 0x0, symName: __ZNKSt3__117__compressed_pairIPNS_6vectorINS1_IdNS_9allocatorIdEEEENS2_IS4_EEEENS2_IS6_EEE5firstB8ne180100Ev, symObjAddr: 0x1D980, symBinAddr: 0x100044B90, symSize: 0x124 }
  - { offset: 0x2EAC0, size: 0x8, addend: 0x0, symName: __ZNKSt3__122__compressed_pair_elemIPNS_6vectorINS1_IdNS_9allocatorIdEEEENS2_IS4_EEEELi0ELb0EE5__getB8ne180100Ev, symObjAddr: 0x1DAA4, symBinAddr: 0x100044CB4, symSize: 0xAC }
  - { offset: 0x2EAFF, size: 0x8, addend: 0x0, symName: __ZNSt3__16vectorINS0_INS0_IdNS_9allocatorIdEEEENS1_IS3_EEEENS1_IS5_EEE21_ConstructTransactionC1B8ne180100ERS7_m, symObjAddr: 0x1DB50, symBinAddr: 0x100044D60, symSize: 0x88 }
  - { offset: 0x2EB47, size: 0x8, addend: 0x0, symName: __ZNSt3__116allocator_traitsINS_9allocatorINS_6vectorINS2_IdNS1_IdEEEENS1_IS4_EEEEEEE9constructB8ne180100IS6_JEvvEEvRS7_PT_DpOT0_, symObjAddr: 0x1DBD8, symBinAddr: 0x100044DE8, symSize: 0x28 }
  - { offset: 0x2EB86, size: 0x8, addend: 0x0, symName: __ZNSt3__16vectorINS0_INS0_IdNS_9allocatorIdEEEENS1_IS3_EEEENS1_IS5_EEE21_ConstructTransactionD1B8ne180100Ev, symObjAddr: 0x1DC00, symBinAddr: 0x100044E10, symSize: 0x78 }
  - { offset: 0x2EBB0, size: 0x8, addend: 0x0, symName: __ZNSt3__16vectorINS0_INS0_IdNS_9allocatorIdEEEENS1_IS3_EEEENS1_IS5_EEE21_ConstructTransactionC2B8ne180100ERS7_m, symObjAddr: 0x1DC78, symBinAddr: 0x100044E88, symSize: 0x3E0 }
  - { offset: 0x2EBF8, size: 0x8, addend: 0x0, symName: __ZNKSt3__16vectorINS0_INS0_IdNS_9allocatorIdEEEENS1_IS3_EEEENS1_IS5_EEE19__annotate_increaseB8ne180100Em, symObjAddr: 0x1E058, symBinAddr: 0x100045268, symSize: 0x35C }
  - { offset: 0x2EC2D, size: 0x8, addend: 0x0, symName: __ZNSt3__16vectorINS0_IdNS_9allocatorIdEEEENS1_IS3_EEEC1B8ne180100Ev, symObjAddr: 0x1E540, symBinAddr: 0x100045658, symSize: 0x78 }
  - { offset: 0x2EC57, size: 0x8, addend: 0x0, symName: __ZNSt3__16vectorINS0_IdNS_9allocatorIdEEEENS1_IS3_EEEC2B8ne180100Ev, symObjAddr: 0x1E5B8, symBinAddr: 0x1000456D0, symSize: 0x37C }
  - { offset: 0x2EC82, size: 0x8, addend: 0x0, symName: __ZNSt3__16vectorINS0_INS0_IdNS_9allocatorIdEEEENS1_IS3_EEEENS1_IS5_EEE21_ConstructTransactionD2B8ne180100Ev, symObjAddr: 0x1E934, symBinAddr: 0x100045A4C, symSize: 0x390 }
  - { offset: 0x2ECAC, size: 0x8, addend: 0x0, symName: __ZNKSt3__16vectorINS0_INS0_IdNS_9allocatorIdEEEENS1_IS3_EEEENS1_IS5_EEE17__annotate_shrinkB8ne180100Em, symObjAddr: 0x1ECC4, symBinAddr: 0x100045DDC, symSize: 0x268 }
  - { offset: 0x2ECE1, size: 0x8, addend: 0x0, symName: __ZNSt3__128__exception_guard_exceptionsINS_6vectorINS1_INS1_IdNS_9allocatorIdEEEENS2_IS4_EEEENS2_IS6_EEE16__destroy_vectorEED2B8ne180100Ev, symObjAddr: 0x1EF2C, symBinAddr: 0x100046044, symSize: 0x17C }
  - { offset: 0x2ED0B, size: 0x8, addend: 0x0, symName: __ZNSt3__16vectorINS0_INS0_IdNS_9allocatorIdEEEENS1_IS3_EEEENS1_IS5_EEE16__destroy_vectorclB8ne180100Ev, symObjAddr: 0x1F0A8, symBinAddr: 0x1000461C0, symSize: 0x43C }
  - { offset: 0x2ED31, size: 0x8, addend: 0x0, symName: __ZNSt3__16vectorINS0_INS0_IdNS_9allocatorIdEEEENS1_IS3_EEEENS1_IS5_EEE7__clearB8ne180100Ev, symObjAddr: 0x1F4E4, symBinAddr: 0x1000465FC, symSize: 0xB0 }
  - { offset: 0x2ED57, size: 0x8, addend: 0x0, symName: __ZNKSt3__16vectorINS0_INS0_IdNS_9allocatorIdEEEENS1_IS3_EEEENS1_IS5_EEE17__annotate_deleteB8ne180100Ev, symObjAddr: 0x1F594, symBinAddr: 0x1000466AC, symSize: 0x278 }
  - { offset: 0x2ED7D, size: 0x8, addend: 0x0, symName: __ZNSt3__116allocator_traitsINS_9allocatorINS_6vectorINS2_IdNS1_IdEEEENS1_IS4_EEEEEEE10deallocateB8ne180100ERS7_PS6_m, symObjAddr: 0x1F80C, symBinAddr: 0x100046924, symSize: 0x34 }
  - { offset: 0x2EDBF, size: 0x8, addend: 0x0, symName: __ZNSt3__16vectorINS0_INS0_IdNS_9allocatorIdEEEENS1_IS3_EEEENS1_IS5_EEE22__base_destruct_at_endB8ne180100EPS5_, symObjAddr: 0x1F840, symBinAddr: 0x100046958, symSize: 0x1FC }
  - { offset: 0x2EE03, size: 0x8, addend: 0x0, symName: __ZNSt3__116allocator_traitsINS_9allocatorINS_6vectorINS2_IdNS1_IdEEEENS1_IS4_EEEEEEE7destroyB8ne180100IS6_vvEEvRS7_PT_, symObjAddr: 0x1FA3C, symBinAddr: 0x100046B54, symSize: 0x28 }
  - { offset: 0x2EE3D, size: 0x8, addend: 0x0, symName: __ZNSt3__19allocatorINS_6vectorINS1_IdNS0_IdEEEENS0_IS3_EEEEE10deallocateB8ne180100EPS5_m, symObjAddr: 0x1FAD0, symBinAddr: 0x100046BE8, symSize: 0x7C }
  - { offset: 0x2EE7F, size: 0x8, addend: 0x0, symName: __ZNSt3__16vectorINS0_IdNS_9allocatorIdEEEENS1_IS3_EEEC2Em, symObjAddr: 0x1FB4C, symBinAddr: 0x100046C64, symSize: 0x550 }
  - { offset: 0x2EED5, size: 0x8, addend: 0x0, symName: __ZNSt3__16vectorINS0_IdNS_9allocatorIdEEEENS1_IS3_EEE18__construct_at_endEm, symObjAddr: 0x2009C, symBinAddr: 0x1000471B4, symSize: 0x5C8 }
  - { offset: 0x2EF4F, size: 0x8, addend: 0x0, symName: __ZNSt3__116allocator_traitsINS_9allocatorINS_6vectorIdNS1_IdEEEEEEE9constructB8ne180100IS4_JEvvEEvRS5_PT_DpOT0_, symObjAddr: 0x20664, symBinAddr: 0x10004777C, symSize: 0x28 }
  - { offset: 0x2EF8E, size: 0x8, addend: 0x0, symName: __ZNSt3__16vectorIdNS_9allocatorIdEEEC1B8ne180100Ev, symObjAddr: 0x20720, symBinAddr: 0x100047838, symSize: 0x78 }
  - { offset: 0x2EFB8, size: 0x8, addend: 0x0, symName: __ZNSt3__16vectorIdNS_9allocatorIdEEEC2B8ne180100Ev, symObjAddr: 0x20798, symBinAddr: 0x1000478B0, symSize: 0x37C }
  - { offset: 0x2EFE3, size: 0x8, addend: 0x0, symName: __ZNSt3__16vectorINS0_IdNS_9allocatorIdEEEENS1_IS3_EEE19__copy_assign_allocB8ne180100ERKS5_, symObjAddr: 0x20B14, symBinAddr: 0x100047C2C, symSize: 0xBC }
  - { offset: 0x2F018, size: 0x8, addend: 0x0, symName: __ZNSt3__16vectorINS0_IdNS_9allocatorIdEEEENS1_IS3_EEE6assignIPS3_Li0EEEvT_S8_, symObjAddr: 0x20BD0, symBinAddr: 0x100047CE8, symSize: 0x9C }
  - { offset: 0x2F06D, size: 0x8, addend: 0x0, symName: __ZNSt3__16vectorINS0_IdNS_9allocatorIdEEEENS1_IS3_EEE19__copy_assign_allocB8ne180100ERKS5_NS_17integral_constantIbLb0EEE, symObjAddr: 0x20C6C, symBinAddr: 0x100047D84, symSize: 0x64 }
  - { offset: 0x2F0A9, size: 0x8, addend: 0x0, symName: __ZNSt3__16vectorINS0_IdNS_9allocatorIdEEEENS1_IS3_EEE18__assign_with_sizeB8ne180100IPS3_S7_EEvT_T0_l, symObjAddr: 0x20CD0, symBinAddr: 0x100047DE8, symSize: 0x48C }
  - { offset: 0x2F160, size: 0x8, addend: 0x0, symName: __ZNSt3__16vectorINS0_IdNS_9allocatorIdEEEENS1_IS3_EEE17__destruct_at_endB8ne180100EPS3_, symObjAddr: 0x21D40, symBinAddr: 0x1000489A0, symSize: 0x90 }
  - { offset: 0x2F1A4, size: 0x8, addend: 0x0, symName: __ZNKSt3__16vectorINS0_IdNS_9allocatorIdEEEENS1_IS3_EEE11__recommendB8ne180100Em, symObjAddr: 0x22014, symBinAddr: 0x100048A30, symSize: 0x44C }
  - { offset: 0x2F228, size: 0x8, addend: 0x0, symName: __ZNKSt3__111__copy_loopINS_17_ClassicAlgPolicyEEclB8ne180100IPNS_6vectorIdNS_9allocatorIdEEEES8_S8_EENS_4pairIT_T1_EESA_T0_SB_, symObjAddr: 0x25CD4, symBinAddr: 0x1000496CC, symSize: 0x65C }
  - { offset: 0x2F29D, size: 0x8, addend: 0x0, symName: __ZNSt3__119__unwrap_range_implIPNS_6vectorIdNS_9allocatorIdEEEES5_E8__rewrapB8ne180100ES5_S5_, symObjAddr: 0x265F4, symBinAddr: 0x100049FEC, symSize: 0x2C }
  - { offset: 0x2F2CE, size: 0x8, addend: 0x0, symName: __ZNSt3__16vectorIdNS_9allocatorIdEEE19__copy_assign_allocB8ne180100ERKS3_, symObjAddr: 0x26A8C, symBinAddr: 0x10004A3FC, symSize: 0xBC }
  - { offset: 0x2F303, size: 0x8, addend: 0x0, symName: __ZNSt3__16vectorIdNS_9allocatorIdEEE6assignIPdLi0EEEvT_S6_, symObjAddr: 0x26B48, symBinAddr: 0x10004A4B8, symSize: 0x9C }
  - { offset: 0x2F358, size: 0x8, addend: 0x0, symName: __ZNSt3__16vectorIdNS_9allocatorIdEEE19__copy_assign_allocB8ne180100ERKS3_NS_17integral_constantIbLb0EEE, symObjAddr: 0x26BE4, symBinAddr: 0x10004A554, symSize: 0x64 }
  - { offset: 0x2F394, size: 0x8, addend: 0x0, symName: __ZNSt3__16vectorIdNS_9allocatorIdEEE18__assign_with_sizeB8ne180100IPdS5_EEvT_T0_l, symObjAddr: 0x26C48, symBinAddr: 0x10004A5B8, symSize: 0x48C }
  - { offset: 0x2F44B, size: 0x8, addend: 0x0, symName: __ZNSt3__16vectorIdNS_9allocatorIdEEE17__destruct_at_endB8ne180100EPd, symObjAddr: 0x27330, symBinAddr: 0x10004ACA0, symSize: 0x90 }
  - { offset: 0x2F48F, size: 0x8, addend: 0x0, symName: __ZNKSt3__16vectorIdNS_9allocatorIdEEE11__recommendB8ne180100Em, symObjAddr: 0x27604, symBinAddr: 0x10004AD30, symSize: 0x44C }
  - { offset: 0x2F4EB, size: 0x8, addend: 0x0, symName: __ZNSt3__16vectorINS0_INS0_IdNS_9allocatorIdEEEENS1_IS3_EEEENS1_IS5_EEED2B8ne180100Ev, symObjAddr: 0x27FE8, symBinAddr: 0x10004B3C0, symSize: 0x2CC }
  - { offset: 0x2F516, size: 0x8, addend: 0x0, symName: __ZNSt3__16vectorImNS_9allocatorImEEED2B8ne180100Ev, symObjAddr: 0x282B4, symBinAddr: 0x10004B68C, symSize: 0x2CC }
  - { offset: 0x2F541, size: 0x8, addend: 0x0, symName: __ZNSt3__123mersenne_twister_engineIjLm32ELm624ELm397ELm31ELj2567483615ELm11ELj4294967295ELm7ELj2636928640ELm15ELj4022730752ELm18ELj1812433253EEC2B8ne180100Ej, symObjAddr: 0x28580, symBinAddr: 0x10004B958, symSize: 0x80 }
  - { offset: 0x2F579, size: 0x8, addend: 0x0, symName: __ZNSt3__123mersenne_twister_engineIjLm32ELm624ELm397ELm31ELj2567483615ELm11ELj4294967295ELm7ELj2636928640ELm15ELj4022730752ELm18ELj1812433253EE4seedEj, symObjAddr: 0x28600, symBinAddr: 0x10004B9D8, symSize: 0x700 }
  - { offset: 0x2F5CC, size: 0x8, addend: 0x0, symName: __ZNSt3__123mersenne_twister_engineIjLm32ELm624ELm397ELm31ELj2567483615ELm11ELj4294967295ELm7ELj2636928640ELm15ELj4022730752ELm18ELj1812433253EE8__rshiftB8ne180100ILm30ELi0EEEjj, symObjAddr: 0x28D00, symBinAddr: 0x10004C0D8, symSize: 0x50 }
  - { offset: 0x2F600, size: 0x8, addend: 0x0, symName: __ZNSt3__18_IterOpsINS_17_ClassicAlgPolicyEE4nextB8ne180100INS_11__wrap_iterIPmEEEET_S7_S7_, symObjAddr: 0x293A4, symBinAddr: 0x10004C77C, symSize: 0x2C4 }
  - { offset: 0x2F63E, size: 0x8, addend: 0x0, symName: __ZNSt3__124uniform_int_distributionIlEC1B8ne180100Ev, symObjAddr: 0x29704, symBinAddr: 0x10004CADC, symSize: 0x84 }
  - { offset: 0x2F668, size: 0x8, addend: 0x0, symName: __ZNSt3__111__wrap_iterIPmEmmB8ne180100Ev, symObjAddr: 0x29788, symBinAddr: 0x10004CB60, symSize: 0x1A8 }
  - { offset: 0x2F68E, size: 0x8, addend: 0x0, symName: __ZNSt3__124uniform_int_distributionIlE10param_typeC1B8ne180100Ell, symObjAddr: 0x29F40, symBinAddr: 0x10004D318, symSize: 0x88 }
  - { offset: 0x2F6D9, size: 0x8, addend: 0x0, symName: __ZNSt3__18_IterOpsINS_17_ClassicAlgPolicyEE9iter_swapB8ne180100IRNS_11__wrap_iterIPmEES6_EEvOT_OT0_, symObjAddr: 0x29FC8, symBinAddr: 0x10004D3A0, symSize: 0x280 }
  - { offset: 0x2F71E, size: 0x8, addend: 0x0, symName: __ZNKSt3__111__wrap_iterIPmEplB8ne180100El, symObjAddr: 0x2A248, symBinAddr: 0x10004D620, symSize: 0x250 }
  - { offset: 0x2F766, size: 0x8, addend: 0x0, symName: __ZNSt3__124uniform_int_distributionIlEC1B8ne180100Ell, symObjAddr: 0x2A498, symBinAddr: 0x10004D870, symSize: 0x88 }
  - { offset: 0x2F7AC, size: 0x8, addend: 0x0, symName: __ZNSt3__124uniform_int_distributionIlEC2B8ne180100Ell, symObjAddr: 0x2A520, symBinAddr: 0x10004D8F8, symSize: 0x88 }
  - { offset: 0x2F7F2, size: 0x8, addend: 0x0, symName: __ZNKSt3__124uniform_int_distributionIlE10param_type1bB8ne180100Ev, symObjAddr: 0x2A5A8, symBinAddr: 0x10004D980, symSize: 0xB0 }
  - { offset: 0x2F818, size: 0x8, addend: 0x0, symName: __ZNKSt3__124uniform_int_distributionIlE10param_type1aB8ne180100Ev, symObjAddr: 0x2A658, symBinAddr: 0x10004DA30, symSize: 0xAC }
  - { offset: 0x2F83E, size: 0x8, addend: 0x0, symName: __ZNSt3__125__independent_bits_engineINS_23mersenne_twister_engineIjLm32ELm624ELm397ELm31ELj2567483615ELm11ELj4294967295ELm7ELj2636928640ELm15ELj4022730752ELm18ELj1812433253EEEmEC1ERS2_m, symObjAddr: 0x2A704, symBinAddr: 0x10004DADC, symSize: 0x88 }
  - { offset: 0x2F885, size: 0x8, addend: 0x0, symName: __ZNSt3__125__independent_bits_engineINS_23mersenne_twister_engineIjLm32ELm624ELm397ELm31ELj2567483615ELm11ELj4294967295ELm7ELj2636928640ELm15ELj4022730752ELm18ELj1812433253EEEmEclB8ne180100Ev, symObjAddr: 0x2A78C, symBinAddr: 0x10004DB64, symSize: 0x6C }
  - { offset: 0x2F8AB, size: 0x8, addend: 0x0, symName: __ZNSt3__125__independent_bits_engineINS_23mersenne_twister_engineIjLm32ELm624ELm397ELm31ELj2567483615ELm11ELj4294967295ELm7ELj2636928640ELm15ELj4022730752ELm18ELj1812433253EEEmEC2ERS2_m, symObjAddr: 0x2A884, symBinAddr: 0x10004DC5C, symSize: 0xEE8 }
  - { offset: 0x2F8F2, size: 0x8, addend: 0x0, symName: __ZNSt3__125__independent_bits_engineINS_23mersenne_twister_engineIjLm32ELm624ELm397ELm31ELj2567483615ELm11ELj4294967295ELm7ELj2636928640ELm15ELj4022730752ELm18ELj1812433253EEEmE6__evalENS_17integral_constantIbLb1EEE, symObjAddr: 0x2B76C, symBinAddr: 0x10004EB44, symSize: 0x674 }
  - { offset: 0x2F9B1, size: 0x8, addend: 0x0, symName: __ZNSt3__123mersenne_twister_engineIjLm32ELm624ELm397ELm31ELj2567483615ELm11ELj4294967295ELm7ELj2636928640ELm15ELj4022730752ELm18ELj1812433253EEclEv, symObjAddr: 0x2BDE0, symBinAddr: 0x10004F1B8, symSize: 0xD58 }
  - { offset: 0x2FA24, size: 0x8, addend: 0x0, symName: __ZNSt3__123mersenne_twister_engineIjLm32ELm624ELm397ELm31ELj2567483615ELm11ELj4294967295ELm7ELj2636928640ELm15ELj4022730752ELm18ELj1812433253EE3minB8ne180100Ev, symObjAddr: 0x2CB38, symBinAddr: 0x10004FF10, symSize: 0x8 }
  - { offset: 0x2FA38, size: 0x8, addend: 0x0, symName: __ZNSt3__123mersenne_twister_engineIjLm32ELm624ELm397ELm31ELj2567483615ELm11ELj4294967295ELm7ELj2636928640ELm15ELj4022730752ELm18ELj1812433253EE8__rshiftB8ne180100ILm1ELi0EEEjj, symObjAddr: 0x2CB40, symBinAddr: 0x10004FF18, symSize: 0x50 }
  - { offset: 0x2FA6C, size: 0x8, addend: 0x0, symName: __ZNSt3__123mersenne_twister_engineIjLm32ELm624ELm397ELm31ELj2567483615ELm11ELj4294967295ELm7ELj2636928640ELm15ELj4022730752ELm18ELj1812433253EE8__rshiftB8ne180100ILm11ELi0EEEjj, symObjAddr: 0x2CB90, symBinAddr: 0x10004FF68, symSize: 0x50 }
  - { offset: 0x2FAA0, size: 0x8, addend: 0x0, symName: __ZNSt3__123mersenne_twister_engineIjLm32ELm624ELm397ELm31ELj2567483615ELm11ELj4294967295ELm7ELj2636928640ELm15ELj4022730752ELm18ELj1812433253EE8__lshiftB8ne180100ILm7ELi0EEEjj, symObjAddr: 0x2CBE0, symBinAddr: 0x10004FFB8, symSize: 0x58 }
  - { offset: 0x2FAD4, size: 0x8, addend: 0x0, symName: __ZNSt3__123mersenne_twister_engineIjLm32ELm624ELm397ELm31ELj2567483615ELm11ELj4294967295ELm7ELj2636928640ELm15ELj4022730752ELm18ELj1812433253EE8__lshiftB8ne180100ILm15ELi0EEEjj, symObjAddr: 0x2CC38, symBinAddr: 0x100050010, symSize: 0x58 }
  - { offset: 0x2FB08, size: 0x8, addend: 0x0, symName: __ZNSt3__123mersenne_twister_engineIjLm32ELm624ELm397ELm31ELj2567483615ELm11ELj4294967295ELm7ELj2636928640ELm15ELj4022730752ELm18ELj1812433253EE8__rshiftB8ne180100ILm18ELi0EEEjj, symObjAddr: 0x2CC90, symBinAddr: 0x100050068, symSize: 0x50 }
  - { offset: 0x2FB3C, size: 0x8, addend: 0x0, symName: __ZNSt3__124uniform_int_distributionIlE10param_typeC2B8ne180100Ell, symObjAddr: 0x2CD30, symBinAddr: 0x100050108, symSize: 0x110 }
  - { offset: 0x2FB82, size: 0x8, addend: 0x0, symName: __ZNSt3__111__wrap_iterIPmEpLB8ne180100El, symObjAddr: 0x2D2F8, symBinAddr: 0x1000506D0, symSize: 0x228 }
  - { offset: 0x31B56, size: 0x8, addend: 0x0, symName: _.str, symObjAddr: 0x4D500, symBinAddr: 0x100081080, symSize: 0x0 }
  - { offset: 0x31B86, size: 0x8, addend: 0x0, symName: _.str.2, symObjAddr: 0x4D540, symBinAddr: 0x1000810C0, symSize: 0x0 }
  - { offset: 0x31BA4, size: 0x8, addend: 0x0, symName: _.str.11, symObjAddr: 0x4D560, symBinAddr: 0x1000810E0, symSize: 0x0 }
  - { offset: 0x40769, size: 0x8, addend: 0x0, symName: __ZNSt3__17advanceB8ne180100INS_16reverse_iteratorIPNS_6vectorIdNS_9allocatorIdEEEEEEllvEEvRT_T0_, symObjAddr: 0x12028, symBinAddr: 0x10005BC50, symSize: 0x80 }
  - { offset: 0x41E4F, size: 0x8, addend: 0x0, symName: __ZNSt3__17advanceB8ne180100IPNS_6vectorINS1_IdNS_9allocatorIdEEEENS2_IS4_EEEEllvEEvRT_T0_, symObjAddr: 0x2AE4C, symBinAddr: 0x1000652E4, symSize: 0x80 }
  - { offset: 0x420CF, size: 0x8, addend: 0x0, symName: __ZNSt3__17advanceB8ne180100INS_16reverse_iteratorIPNS_6vectorINS2_IdNS_9allocatorIdEEEENS3_IS5_EEEEEEllvEEvRT_T0_, symObjAddr: 0x2C79C, symBinAddr: 0x100066BA0, symSize: 0x80 }
  - { offset: 0x43AC1, size: 0x8, addend: 0x0, symName: __ZNSt3__1lsB8ne180100IcNS_11char_traitsIcEENS_9allocatorIcEEEERNS_13basic_ostreamIT_T0_EES9_RKNS_12basic_stringIS6_S7_T1_EE, symObjAddr: 0x2354, symBinAddr: 0x1000528C8, symSize: 0x12C }
  - { offset: 0x43B19, size: 0x8, addend: 0x0, symName: __ZNSt3__17getlineB8ne180100IcNS_11char_traitsIcEENS_9allocatorIcEEEERNS_13basic_istreamIT_T0_EES9_RNS_12basic_stringIS6_S7_T1_EE, symObjAddr: 0x2A34, symBinAddr: 0x1000529F4, symSize: 0x330 }
  - { offset: 0x440E2, size: 0x8, addend: 0x0, symName: __ZNSt3__17getlineB8ne180100IcNS_11char_traitsIcEENS_9allocatorIcEEEERNS_13basic_istreamIT_T0_EES9_RNS_12basic_stringIS6_S7_T1_EES6_, symObjAddr: 0x3330, symBinAddr: 0x100053278, symSize: 0xF84 }
  - { offset: 0x441C9, size: 0x8, addend: 0x0, symName: __ZNSt3__114__construct_atB8ne180100INS_6vectorIdNS_9allocatorIdEEEEJS4_EPS4_EEPT_S7_DpOT0_, symObjAddr: 0x9BB0, symBinAddr: 0x1000571F0, symSize: 0x7C }
  - { offset: 0x4421C, size: 0x8, addend: 0x0, symName: __ZNSt3__112construct_atB8ne180100INS_6vectorIdNS_9allocatorIdEEEEJS4_EPS4_EEPT_S7_DpOT0_, symObjAddr: 0x9C2C, symBinAddr: 0x10005726C, symSize: 0xC0 }
  - { offset: 0x4426F, size: 0x8, addend: 0x0, symName: __ZNSt3__142__uninitialized_allocator_move_if_noexceptB8ne180100INS_9allocatorINS_6vectorIdNS1_IdEEEEEENS_16reverse_iteratorIPS4_EES8_S8_EET2_RT_T0_T1_S9_, symObjAddr: 0xEBEC, symBinAddr: 0x1000594C0, symSize: 0x620 }
  - { offset: 0x44324, size: 0x8, addend: 0x0, symName: __ZNSt3__14swapB8ne180100IPNS_6vectorIdNS_9allocatorIdEEEEEENS_9enable_ifIXaasr21is_move_constructibleIT_EE5valuesr18is_move_assignableIS7_EE5valueEvE4typeERS7_SA_, symObjAddr: 0xF33C, symBinAddr: 0x100059AE0, symSize: 0x1C0 }
  - { offset: 0x44375, size: 0x8, addend: 0x0, symName: __ZNSt3__122__make_exception_guardB8ne180100INS_29_AllocatorDestroyRangeReverseINS_9allocatorINS_6vectorIdNS2_IdEEEEEENS_16reverse_iteratorIPS5_EEEEEENS_28__exception_guard_exceptionsIT_EESC_, symObjAddr: 0xF764, symBinAddr: 0x100059CA0, symSize: 0x22C }
  - { offset: 0x443AC, size: 0x8, addend: 0x0, symName: __ZNSt3__119__allocator_destroyB8ne180100INS_9allocatorINS_6vectorIdNS1_IdEEEEEENS_16reverse_iteratorINS6_IPS4_EEEES9_EEvRT_T0_T1_, symObjAddr: 0x10E88, symBinAddr: 0x10005AB44, symSize: 0x1A4 }
  - { offset: 0x44411, size: 0x8, addend: 0x0, symName: __ZNSt3__1neB8ne180100INS_16reverse_iteratorIPNS_6vectorIdNS_9allocatorIdEEEEEES7_EEbRKNS1_IT_EERKNS1_IT0_EE, symObjAddr: 0x112C0, symBinAddr: 0x10005AF7C, symSize: 0x314 }
  - { offset: 0x4445F, size: 0x8, addend: 0x0, symName: __ZNSt3__112__to_addressB8ne180100INS_16reverse_iteratorINS1_IPNS_6vectorIdNS_9allocatorIdEEEEEEEEvEEu7__decayIDTclsr19__to_address_helperIT_EE6__callclsr3stdE7declvalIRKS9_EEEEESB_, symObjAddr: 0x115FC, symBinAddr: 0x10005B290, symSize: 0x6C }
  - { offset: 0x444BE, size: 0x8, addend: 0x0, symName: __ZNSt3__14prevB8ne180100INS_16reverse_iteratorIPNS_6vectorIdNS_9allocatorIdEEEEEELi0EEET_S8_NS_15iterator_traitsIS8_E15difference_typeE, symObjAddr: 0x11D74, symBinAddr: 0x10005B99C, symSize: 0x2B4 }
  - { offset: 0x4450C, size: 0x8, addend: 0x0, symName: __ZNSt3__19__advanceB8ne180100INS_16reverse_iteratorIPNS_6vectorIdNS_9allocatorIdEEEEEEEEvRT_NS_15iterator_traitsIS8_E15difference_typeENS_26random_access_iterator_tagE, symObjAddr: 0x120A8, symBinAddr: 0x10005BCD0, symSize: 0x7C }
  - { offset: 0x44555, size: 0x8, addend: 0x0, symName: __ZNSt3__130__uninitialized_allocator_copyB8ne180100INS_9allocatorIdEEPKdS4_PdEET2_RT_T0_T1_S6_, symObjAddr: 0x167C0, symBinAddr: 0x10005D994, symSize: 0x32C }
  - { offset: 0x445FB, size: 0x8, addend: 0x0, symName: __ZNSt3__114__unwrap_rangeB8ne180100IPKdS2_EEDaT_T0_, symObjAddr: 0x17378, symBinAddr: 0x10005DCC0, symSize: 0x21C }
  - { offset: 0x44649, size: 0x8, addend: 0x0, symName: __ZNSt3__135__uninitialized_allocator_copy_implB8ne180100INS_9allocatorIdEEKdddLPv0EEEPT2_RT_PT0_SA_S6_, symObjAddr: 0x17594, symBinAddr: 0x10005DEDC, symSize: 0x38 }
  - { offset: 0x447E6, size: 0x8, addend: 0x0, symName: __ZNSt3__113__unwrap_iterB8ne180100IPKdNS_18__unwrap_iter_implIS2_Lb1EEELi0EEEDTclsrT0_8__unwrapclsr3stdE7declvalIT_EEEES6_, symObjAddr: 0x17934, symBinAddr: 0x10005E210, symSize: 0x24 }
  - { offset: 0x4487D, size: 0x8, addend: 0x0, symName: __ZNSt3__112__to_addressB8ne180100IKdEEPT_S3_, symObjAddr: 0x17A04, symBinAddr: 0x10005E2E0, symSize: 0x14 }
  - { offset: 0x448B2, size: 0x8, addend: 0x0, symName: __ZNSt3__14copyB8ne180100IPKdPdEET0_T_S5_S4_, symObjAddr: 0x17C28, symBinAddr: 0x10005E504, symSize: 0x2AC }
  - { offset: 0x4490F, size: 0x8, addend: 0x0, symName: __ZNSt3__16__copyB8ne180100INS_17_ClassicAlgPolicyEPKdS3_PdEENS_4pairIT0_T2_EES6_T1_S7_, symObjAddr: 0x17ED4, symBinAddr: 0x10005E7B0, symSize: 0x224 }
  - { offset: 0x4497E, size: 0x8, addend: 0x0, symName: __ZNSt3__123__dispatch_copy_or_moveB8ne180100INS_17_ClassicAlgPolicyENS_11__copy_loopIS1_EENS_14__copy_trivialEPKdS6_PdEENS_4pairIT2_T4_EES9_T3_SA_, symObjAddr: 0x180F8, symBinAddr: 0x10005E9D4, symSize: 0x224 }
  - { offset: 0x449FF, size: 0x8, addend: 0x0, symName: __ZNSt3__121__unwrap_and_dispatchB8ne180100INS_10__overloadINS_11__copy_loopINS_17_ClassicAlgPolicyEEENS_14__copy_trivialEEEPKdS8_PdLi0EEENS_4pairIT0_T2_EESB_T1_SC_, symObjAddr: 0x1831C, symBinAddr: 0x10005EBF8, symSize: 0x62C }
  - { offset: 0x44C1D, size: 0x8, addend: 0x0, symName: __ZNSt3__19make_pairB8ne180100IPKdPdEENS_4pairINS_18__unwrap_ref_decayIT_E4typeENS5_IT0_E4typeEEEOS6_OS9_, symObjAddr: 0x18B9C, symBinAddr: 0x10005F478, symSize: 0x298 }
  - { offset: 0x44C6E, size: 0x8, addend: 0x0, symName: __ZNSt3__114__rewrap_rangeB8ne180100IPKdS2_S2_EET0_S3_T1_, symObjAddr: 0x18E34, symBinAddr: 0x10005F710, symSize: 0x2C }
  - { offset: 0x44CC3, size: 0x8, addend: 0x0, symName: __ZNSt3__119__copy_trivial_implB8ne180100IKddEENS_4pairIPT_PT0_EES4_S4_S6_, symObjAddr: 0x18E60, symBinAddr: 0x10005F73C, symSize: 0x470 }
  - { offset: 0x44D32, size: 0x8, addend: 0x0, symName: __ZNSt3__119__constexpr_memmoveB8ne180100IdKdLi0EEEPT_S3_PT0_NS_15__element_countE, symObjAddr: 0x192D0, symBinAddr: 0x10005FBAC, symSize: 0x64 }
  - { offset: 0x44DA0, size: 0x8, addend: 0x0, symName: __ZNSt3__19make_pairB8ne180100IRPKdPdEENS_4pairINS_18__unwrap_ref_decayIT_E4typeENS6_IT0_E4typeEEEOS7_OSA_, symObjAddr: 0x19334, symBinAddr: 0x10005FC10, symSize: 0x298 }
  - { offset: 0x44DF1, size: 0x8, addend: 0x0, symName: __ZNSt3__113__rewrap_iterB8ne180100IPKdS2_NS_18__unwrap_iter_implIS2_Lb1EEEEET_S5_T0_, symObjAddr: 0x19B28, symBinAddr: 0x100060404, symSize: 0x48 }
  - { offset: 0x44E46, size: 0x8, addend: 0x0, symName: __ZNSt3__114__construct_atB8ne180100INS_6vectorINS1_IdNS_9allocatorIdEEEENS2_IS4_EEEEJRKS6_EPS6_EEPT_SB_DpOT0_, symObjAddr: 0x1D1E8, symBinAddr: 0x10006119C, symSize: 0x7C }
  - { offset: 0x44E99, size: 0x8, addend: 0x0, symName: __ZNSt3__112construct_atB8ne180100INS_6vectorINS1_IdNS_9allocatorIdEEEENS2_IS4_EEEEJRKS6_EPS6_EEPT_SB_DpOT0_, symObjAddr: 0x1D264, symBinAddr: 0x100061218, symSize: 0xC0 }
  - { offset: 0x44EEC, size: 0x8, addend: 0x0, symName: __ZNSt3__142__uninitialized_allocator_move_if_noexceptB8ne180100INS_9allocatorINS_6vectorINS2_IdNS1_IdEEEENS1_IS4_EEEEEENS_16reverse_iteratorIPS6_EESA_SA_EET2_RT_T0_T1_SB_, symObjAddr: 0x28954, symBinAddr: 0x100063054, symSize: 0x620 }
  - { offset: 0x44FA1, size: 0x8, addend: 0x0, symName: __ZNSt3__14swapB8ne180100IPNS_6vectorINS1_IdNS_9allocatorIdEEEENS2_IS4_EEEEEENS_9enable_ifIXaasr21is_move_constructibleIT_EE5valuesr18is_move_assignableIS9_EE5valueEvE4typeERS9_SC_, symObjAddr: 0x290A4, symBinAddr: 0x1000637A4, symSize: 0x1C0 }
  - { offset: 0x44FF2, size: 0x8, addend: 0x0, symName: __ZNSt3__122__make_exception_guardB8ne180100INS_29_AllocatorDestroyRangeReverseINS_9allocatorINS_6vectorINS3_IdNS2_IdEEEENS2_IS5_EEEEEENS_16reverse_iteratorIPS7_EEEEEENS_28__exception_guard_exceptionsIT_EESE_, symObjAddr: 0x294CC, symBinAddr: 0x100063964, symSize: 0x22C }
  - { offset: 0x45029, size: 0x8, addend: 0x0, symName: __ZNSt3__1neB8ne180100IPNS_6vectorINS1_IdNS_9allocatorIdEEEENS2_IS4_EEEES7_EEbRKNS_16reverse_iteratorIT_EERKNS8_IT0_EE, symObjAddr: 0x29788, symBinAddr: 0x100063C20, symSize: 0x9C }
  - { offset: 0x45075, size: 0x8, addend: 0x0, symName: __ZNSt3__112__to_addressB8ne180100INS_16reverse_iteratorIPNS_6vectorINS2_IdNS_9allocatorIdEEEENS3_IS5_EEEEEEvEEu7__decayIDTclsr19__to_address_helperIT_EE6__callclsr3stdE7declvalIRKSA_EEEEESC_, symObjAddr: 0x298A4, symBinAddr: 0x100063D3C, symSize: 0x6C }
  - { offset: 0x450AB, size: 0x8, addend: 0x0, symName: __ZNSt3__114__construct_atB8ne180100INS_6vectorINS1_IdNS_9allocatorIdEEEENS2_IS4_EEEEJS6_EPS6_EEPT_S9_DpOT0_, symObjAddr: 0x2A11C, symBinAddr: 0x1000645B4, symSize: 0x7C }
  - { offset: 0x450FE, size: 0x8, addend: 0x0, symName: __ZNSt3__112construct_atB8ne180100INS_6vectorINS1_IdNS_9allocatorIdEEEENS2_IS4_EEEEJS6_EPS6_EEPT_S9_DpOT0_, symObjAddr: 0x2A198, symBinAddr: 0x100064630, symSize: 0xC0 }
  - { offset: 0x4517A, size: 0x8, addend: 0x0, symName: __ZNSt3__14prevB8ne180100IPNS_6vectorINS1_IdNS_9allocatorIdEEEENS2_IS4_EEEELi0EEET_S8_NS_15iterator_traitsIS8_E15difference_typeE, symObjAddr: 0x2ABE4, symBinAddr: 0x10006507C, symSize: 0x268 }
  - { offset: 0x451C8, size: 0x8, addend: 0x0, symName: __ZNSt3__19__advanceB8ne180100IPNS_6vectorINS1_IdNS_9allocatorIdEEEENS2_IS4_EEEEEEvRT_NS_15iterator_traitsIS8_E15difference_typeENS_26random_access_iterator_tagE, symObjAddr: 0x2AECC, symBinAddr: 0x100065364, symSize: 0x1A4 }
  - { offset: 0x45211, size: 0x8, addend: 0x0, symName: __ZNSt3__119__allocator_destroyB8ne180100INS_9allocatorINS_6vectorINS2_IdNS1_IdEEEENS1_IS4_EEEEEENS_16reverse_iteratorINS8_IPS6_EEEESB_EEvRT_T0_T1_, symObjAddr: 0x2B5FC, symBinAddr: 0x100065A94, symSize: 0x1A4 }
  - { offset: 0x45276, size: 0x8, addend: 0x0, symName: __ZNSt3__1neB8ne180100INS_16reverse_iteratorIPNS_6vectorINS2_IdNS_9allocatorIdEEEENS3_IS5_EEEEEES9_EEbRKNS1_IT_EERKNS1_IT0_EE, symObjAddr: 0x2BA34, symBinAddr: 0x100065ECC, symSize: 0x314 }
  - { offset: 0x452C4, size: 0x8, addend: 0x0, symName: __ZNSt3__112__to_addressB8ne180100INS_16reverse_iteratorINS1_IPNS_6vectorINS2_IdNS_9allocatorIdEEEENS3_IS5_EEEEEEEEvEEu7__decayIDTclsr19__to_address_helperIT_EE6__callclsr3stdE7declvalIRKSB_EEEEESD_, symObjAddr: 0x2BD70, symBinAddr: 0x1000661E0, symSize: 0x6C }
  - { offset: 0x45323, size: 0x8, addend: 0x0, symName: __ZNSt3__14prevB8ne180100INS_16reverse_iteratorIPNS_6vectorINS2_IdNS_9allocatorIdEEEENS3_IS5_EEEEEELi0EEET_SA_NS_15iterator_traitsISA_E15difference_typeE, symObjAddr: 0x2C4E8, symBinAddr: 0x1000668EC, symSize: 0x2B4 }
  - { offset: 0x45371, size: 0x8, addend: 0x0, symName: __ZNSt3__19__advanceB8ne180100INS_16reverse_iteratorIPNS_6vectorINS2_IdNS_9allocatorIdEEEENS3_IS5_EEEEEEEEvRT_NS_15iterator_traitsISA_E15difference_typeENS_26random_access_iterator_tagE, symObjAddr: 0x2C81C, symBinAddr: 0x100066C20, symSize: 0x7C }
  - { offset: 0x453BA, size: 0x8, addend: 0x0, symName: __ZNSt3__118generate_canonicalB8ne180100IdLm53ENS_23mersenne_twister_engineIjLm32ELm624ELm397ELm31ELj2567483615ELm11ELj4294967295ELm7ELj2636928640ELm15ELj4022730752ELm18ELj1812433253EEEEET_RT1_, symObjAddr: 0x31614, symBinAddr: 0x1000693D8, symSize: 0x1A8 }
  - { offset: 0x45481, size: 0x8, addend: 0x0, symName: __ZNSt3__112__to_addressB8ne180100IKcEEPT_S3_, symObjAddr: 0x3325C, symBinAddr: 0x100069FF0, symSize: 0x14 }
  - { offset: 0x46C2E, size: 0x8, addend: 0x0, symName: __ZNSt3__16vectorINS0_IdNS_9allocatorIdEEEENS1_IS3_EEE26__swap_out_circular_bufferERNS_14__split_bufferIS3_RS4_EE, symObjAddr: 0xB9DC, symBinAddr: 0x100057C20, symSize: 0x854 }
  - { offset: 0x46DE0, size: 0x8, addend: 0x0, symName: __ZNSt3__16vectorINS0_INS0_IdNS_9allocatorIdEEEENS1_IS3_EEEENS1_IS5_EEE26__swap_out_circular_bufferERNS_14__split_bufferIS5_RS6_EE, symObjAddr: 0x263C0, symBinAddr: 0x1000617B4, symSize: 0x854 }
  - { offset: 0x46F3B, size: 0x8, addend: 0x0, symName: __Z7he_initi, symObjAddr: 0x0, symBinAddr: 0x100050948, symSize: 0x3C8 }
  - { offset: 0x46FC3, size: 0x8, addend: 0x0, symName: __ZNSt3__125uniform_real_distributionIdEC1B8ne180100Edd, symObjAddr: 0x79C, symBinAddr: 0x100050D10, symSize: 0x88 }
  - { offset: 0x4700E, size: 0x8, addend: 0x0, symName: __ZNSt3__125uniform_real_distributionIdEclB8ne180100INS_23mersenne_twister_engineIjLm32ELm624ELm397ELm31ELj2567483615ELm11ELj4294967295ELm7ELj2636928640ELm15ELj4022730752ELm18ELj1812433253EEEEEdRT_, symObjAddr: 0x824, symBinAddr: 0x100050D98, symSize: 0x148 }
  - { offset: 0x4704A, size: 0x8, addend: 0x0, symName: __Z8load_csvRKNSt3__112basic_stringIcNS_11char_traitsIcEENS_9allocatorIcEEEE, symObjAddr: 0x96C, symBinAddr: 0x100050EE0, symSize: 0x1028 }
  - { offset: 0x470F4, size: 0x8, addend: 0x0, symName: __ZNSt3__16vectorINS0_INS0_IdNS_9allocatorIdEEEENS1_IS3_EEEENS1_IS5_EEEC1B8ne180100Ev, symObjAddr: 0x1994, symBinAddr: 0x100051F08, symSize: 0x78 }
  - { offset: 0x473DC, size: 0x8, addend: 0x0, symName: __ZNSt3__114basic_ifstreamIcNS_11char_traitsIcEEEC1ERKNS_12basic_stringIcS2_NS_9allocatorIcEEEEj, symObjAddr: 0x1A0C, symBinAddr: 0x100051F80, symSize: 0x6FC }
  - { offset: 0x47426, size: 0x8, addend: 0x0, symName: __ZNSt3__112basic_stringIcNS_11char_traitsIcEENS_9allocatorIcEEEC1B8ne180100Ev, symObjAddr: 0x2108, symBinAddr: 0x10005267C, symSize: 0x78 }
  - { offset: 0x47450, size: 0x8, addend: 0x0, symName: __ZNKSt3__114basic_ifstreamIcNS_11char_traitsIcEEE7is_openEv, symObjAddr: 0x2180, symBinAddr: 0x1000526F4, symSize: 0x1D4 }
  - { offset: 0x47478, size: 0x8, addend: 0x0, symName: __ZNKSt3__19basic_iosIcNS_11char_traitsIcEEEcvbB8ne180100Ev, symObjAddr: 0x2D64, symBinAddr: 0x100052D24, symSize: 0xFC }
  - { offset: 0x47511, size: 0x8, addend: 0x0, symName: __ZNSt3__118basic_stringstreamIcNS_11char_traitsIcEENS_9allocatorIcEEEC1B8ne180100ERKNS_12basic_stringIcS2_S4_EEj, symObjAddr: 0x2ED8, symBinAddr: 0x100052E20, symSize: 0x458 }
  - { offset: 0x47559, size: 0x8, addend: 0x0, symName: __ZNSt3__16vectorINS0_IdNS_9allocatorIdEEEENS1_IS3_EEE9push_backB8ne180100EOS3_, symObjAddr: 0x42B4, symBinAddr: 0x1000541FC, symSize: 0x2D8 }
  - { offset: 0x4759F, size: 0x8, addend: 0x0, symName: __ZNSt3__16vectorIdNS_9allocatorIdEEEC1B8ne180100ESt16initializer_listIdE, symObjAddr: 0x458C, symBinAddr: 0x1000544D4, symSize: 0x294 }
  - { offset: 0x475DF, size: 0x8, addend: 0x0, symName: __ZNSt3__16vectorINS0_INS0_IdNS_9allocatorIdEEEENS1_IS3_EEEENS1_IS5_EEE9push_backB8ne180100ERKS5_, symObjAddr: 0x4898, symBinAddr: 0x100054768, symSize: 0x2D8 }
  - { offset: 0x4762A, size: 0x8, addend: 0x0, symName: __ZNSt3__118basic_stringstreamIcNS_11char_traitsIcEENS_9allocatorIcEEED1Ev, symObjAddr: 0x4B70, symBinAddr: 0x100054A40, symSize: 0x8C }
  - { offset: 0x47657, size: 0x8, addend: 0x0, symName: __ZNSt3__114basic_ifstreamIcNS_11char_traitsIcEEE5closeEv, symObjAddr: 0x4C74, symBinAddr: 0x100054ACC, symSize: 0x38C }
  - { offset: 0x47684, size: 0x8, addend: 0x0, symName: __ZNSt3__114basic_ifstreamIcNS_11char_traitsIcEEED1Ev, symObjAddr: 0x5000, symBinAddr: 0x100054E58, symSize: 0x8C }
  - { offset: 0x476B0, size: 0x8, addend: 0x0, symName: __Z11load_labelsRKNSt3__112basic_stringIcNS_11char_traitsIcEENS_9allocatorIcEEEE, symObjAddr: 0x5104, symBinAddr: 0x100054EE4, symSize: 0xB94 }
  - { offset: 0x4773B, size: 0x8, addend: 0x0, symName: __ZNSt3__16vectorINS0_IdNS_9allocatorIdEEEENS1_IS3_EEE9push_backB8ne180100ERKS3_, symObjAddr: 0x5EEC, symBinAddr: 0x100055A78, symSize: 0x2D8 }
  - { offset: 0x4778B, size: 0x8, addend: 0x0, symName: __ZNSt3__16vectorINS0_INS0_IdNS_9allocatorIdEEEENS1_IS3_EEEENS1_IS5_EEEC2B8ne180100Ev, symObjAddr: 0x686C, symBinAddr: 0x100055D50, symSize: 0x37C }
  - { offset: 0x477BB, size: 0x8, addend: 0x0, symName: __ZNSt3__112basic_stringIcNS_11char_traitsIcEENS_9allocatorIcEEEC2B8ne180100Ev, symObjAddr: 0x6FC8, symBinAddr: 0x1000560CC, symSize: 0x2AC }
  - { offset: 0x477EB, size: 0x8, addend: 0x0, symName: __ZNSt3__117__compressed_pairINS_12basic_stringIcNS_11char_traitsIcEENS_9allocatorIcEEE5__repES5_EC1B8ne180100INS_16__value_init_tagENS_18__default_init_tagEEEOT_OT0_, symObjAddr: 0x7274, symBinAddr: 0x100056378, symSize: 0x88 }
  - { offset: 0x47843, size: 0x8, addend: 0x0, symName: __ZNKSt3__112basic_stringIcNS_11char_traitsIcEENS_9allocatorIcEEE14__annotate_newB8ne180100Em, symObjAddr: 0x72FC, symBinAddr: 0x100056400, symSize: 0x64 }
  - { offset: 0x47878, size: 0x8, addend: 0x0, symName: __ZNSt3__117__compressed_pairINS_12basic_stringIcNS_11char_traitsIcEENS_9allocatorIcEEE5__repES5_EC2B8ne180100INS_16__value_init_tagENS_18__default_init_tagEEEOT_OT0_, symObjAddr: 0x7360, symBinAddr: 0x100056464, symSize: 0xF4 }
  - { offset: 0x478D0, size: 0x8, addend: 0x0, symName: __ZNSt3__122__compressed_pair_elemINS_12basic_stringIcNS_11char_traitsIcEENS_9allocatorIcEEE5__repELi0ELb0EEC2B8ne180100ENS_16__value_init_tagE, symObjAddr: 0x7454, symBinAddr: 0x100056558, symSize: 0x80 }
  - { offset: 0x47904, size: 0x8, addend: 0x0, symName: __ZNSt3__16vectorINS0_IdNS_9allocatorIdEEEENS1_IS3_EEE22__construct_one_at_endB8ne180100IJS3_EEEvDpOT_, symObjAddr: 0x7D30, symBinAddr: 0x1000565D8, symSize: 0x578 }
  - { offset: 0x47959, size: 0x8, addend: 0x0, symName: __ZNSt3__16vectorINS0_IdNS_9allocatorIdEEEENS1_IS3_EEE21__push_back_slow_pathIS3_EEPS3_OT_, symObjAddr: 0x82A8, symBinAddr: 0x100056B50, symSize: 0x620 }
  - { offset: 0x479D7, size: 0x8, addend: 0x0, symName: __ZNSt3__116allocator_traitsINS_9allocatorINS_6vectorIdNS1_IdEEEEEEE9constructB8ne180100IS4_JS4_EvvEEvRS5_PT_DpOT0_, symObjAddr: 0x8B20, symBinAddr: 0x100057170, symSize: 0x80 }
  - { offset: 0x47A2B, size: 0x8, addend: 0x0, symName: __ZNSt3__16vectorIdNS_9allocatorIdEEEC1B8ne180100EOS3_, symObjAddr: 0x9CEC, symBinAddr: 0x10005732C, symSize: 0x80 }
  - { offset: 0x47A66, size: 0x8, addend: 0x0, symName: __ZNSt3__16vectorIdNS_9allocatorIdEEEC2B8ne180100EOS3_, symObjAddr: 0x9D6C, symBinAddr: 0x1000573AC, symSize: 0x7E4 }
  - { offset: 0x47AA3, size: 0x8, addend: 0x0, symName: __ZNSt3__114__split_bufferINS_6vectorIdNS_9allocatorIdEEEERNS2_IS4_EEEC1EmmS6_, symObjAddr: 0xB94C, symBinAddr: 0x100057B90, symSize: 0x90 }
  - { offset: 0x47AF9, size: 0x8, addend: 0x0, symName: __ZNSt3__114__split_bufferINS_6vectorIdNS_9allocatorIdEEEERNS2_IS4_EEED1Ev, symObjAddr: 0xC230, symBinAddr: 0x100058474, symSize: 0x78 }
  - { offset: 0x47B2F, size: 0x8, addend: 0x0, symName: __ZNSt3__114__split_bufferINS_6vectorIdNS_9allocatorIdEEEERNS2_IS4_EEEC2EmmS6_, symObjAddr: 0xD4C0, symBinAddr: 0x1000584EC, symSize: 0x7D8 }
  - { offset: 0x47BAA, size: 0x8, addend: 0x0, symName: __ZNSt3__117__compressed_pairIPNS_6vectorIdNS_9allocatorIdEEEERNS2_IS4_EEEC1B8ne180100IDnS7_EEOT_OT0_, symObjAddr: 0xDC98, symBinAddr: 0x100058CC4, symSize: 0x88 }
  - { offset: 0x47C02, size: 0x8, addend: 0x0, symName: __ZNSt3__114__split_bufferINS_6vectorIdNS_9allocatorIdEEEERNS2_IS4_EEE7__allocB8ne180100Ev, symObjAddr: 0xDFA4, symBinAddr: 0x100058D4C, symSize: 0xE4 }
  - { offset: 0x47C28, size: 0x8, addend: 0x0, symName: __ZNSt3__114__split_bufferINS_6vectorIdNS_9allocatorIdEEEERNS2_IS4_EEE9__end_capB8ne180100Ev, symObjAddr: 0xE088, symBinAddr: 0x100058E30, symSize: 0x100 }
  - { offset: 0x47C4E, size: 0x8, addend: 0x0, symName: __ZNSt3__117__compressed_pairIPNS_6vectorIdNS_9allocatorIdEEEERNS2_IS4_EEEC2B8ne180100IDnS7_EEOT_OT0_, symObjAddr: 0xE188, symBinAddr: 0x100058F30, symSize: 0x198 }
  - { offset: 0x47CA6, size: 0x8, addend: 0x0, symName: __ZNSt3__122__compressed_pair_elemIRNS_9allocatorINS_6vectorIdNS1_IdEEEEEELi1ELb0EEC2B8ne180100IS6_vEEOT_, symObjAddr: 0xE320, symBinAddr: 0x1000590C8, symSize: 0xEC }
  - { offset: 0x47CE8, size: 0x8, addend: 0x0, symName: __ZNSt3__117__compressed_pairIPNS_6vectorIdNS_9allocatorIdEEEERNS2_IS4_EEE6secondB8ne180100Ev, symObjAddr: 0xE668, symBinAddr: 0x1000591B4, symSize: 0x110 }
  - { offset: 0x47D0E, size: 0x8, addend: 0x0, symName: __ZNSt3__122__compressed_pair_elemIRNS_9allocatorINS_6vectorIdNS1_IdEEEEEELi1ELb0EE5__getB8ne180100Ev, symObjAddr: 0xE778, symBinAddr: 0x1000592C4, symSize: 0xD8 }
  - { offset: 0x47D34, size: 0x8, addend: 0x0, symName: __ZNSt3__117__compressed_pairIPNS_6vectorIdNS_9allocatorIdEEEERNS2_IS4_EEE5firstB8ne180100Ev, symObjAddr: 0xE850, symBinAddr: 0x10005939C, symSize: 0x124 }
  - { offset: 0x47D5A, size: 0x8, addend: 0x0, symName: __ZNSt3__129_AllocatorDestroyRangeReverseINS_9allocatorINS_6vectorIdNS1_IdEEEEEENS_16reverse_iteratorIPS4_EEEC1B8ne180100ERS5_RS8_SB_, symObjAddr: 0xF990, symBinAddr: 0x100059ECC, symSize: 0x90 }
  - { offset: 0x47DB1, size: 0x8, addend: 0x0, symName: __ZNKSt3__116reverse_iteratorIPNS_6vectorIdNS_9allocatorIdEEEEEdeB8ne180100Ev, symObjAddr: 0xFB28, symBinAddr: 0x100059F5C, symSize: 0x184 }
  - { offset: 0x47DE5, size: 0x8, addend: 0x0, symName: __ZNSt3__128__exception_guard_exceptionsINS_29_AllocatorDestroyRangeReverseINS_9allocatorINS_6vectorIdNS2_IdEEEEEENS_16reverse_iteratorIPS5_EEEEE10__completeB8ne180100Ev, symObjAddr: 0xFE5C, symBinAddr: 0x10005A0E0, symSize: 0xD8 }
  - { offset: 0x47E0B, size: 0x8, addend: 0x0, symName: __ZNSt3__128__exception_guard_exceptionsINS_29_AllocatorDestroyRangeReverseINS_9allocatorINS_6vectorIdNS2_IdEEEEEENS_16reverse_iteratorIPS5_EEEEED1B8ne180100Ev, symObjAddr: 0xFF34, symBinAddr: 0x10005A1B8, symSize: 0x78 }
  - { offset: 0x47E35, size: 0x8, addend: 0x0, symName: __ZNSt3__128__exception_guard_exceptionsINS_29_AllocatorDestroyRangeReverseINS_9allocatorINS_6vectorIdNS2_IdEEEEEENS_16reverse_iteratorIPS5_EEEEEC1B8ne180100ESA_, symObjAddr: 0xFFAC, symBinAddr: 0x10005A230, symSize: 0x84 }
  - { offset: 0x47E6E, size: 0x8, addend: 0x0, symName: __ZNSt3__128__exception_guard_exceptionsINS_29_AllocatorDestroyRangeReverseINS_9allocatorINS_6vectorIdNS2_IdEEEEEENS_16reverse_iteratorIPS5_EEEEEC2B8ne180100ESA_, symObjAddr: 0x10030, symBinAddr: 0x10005A2B4, symSize: 0xF8 }
  - { offset: 0x47EA7, size: 0x8, addend: 0x0, symName: __ZNSt3__129_AllocatorDestroyRangeReverseINS_9allocatorINS_6vectorIdNS1_IdEEEEEENS_16reverse_iteratorIPS4_EEEC2B8ne180100ERS5_RS8_SB_, symObjAddr: 0x10128, symBinAddr: 0x10005A3AC, symSize: 0x20C }
  - { offset: 0x47EFE, size: 0x8, addend: 0x0, symName: __ZNSt3__128__exception_guard_exceptionsINS_29_AllocatorDestroyRangeReverseINS_9allocatorINS_6vectorIdNS2_IdEEEEEENS_16reverse_iteratorIPS5_EEEEED2B8ne180100Ev, symObjAddr: 0x108FC, symBinAddr: 0x10005A5B8, symSize: 0x17C }
  - { offset: 0x47F28, size: 0x8, addend: 0x0, symName: __ZNKSt3__129_AllocatorDestroyRangeReverseINS_9allocatorINS_6vectorIdNS1_IdEEEEEENS_16reverse_iteratorIPS4_EEEclB8ne180100Ev, symObjAddr: 0x10A78, symBinAddr: 0x10005A734, symSize: 0x410 }
  - { offset: 0x47F4F, size: 0x8, addend: 0x0, symName: __ZNSt3__116reverse_iteratorINS0_IPNS_6vectorIdNS_9allocatorIdEEEEEEEC1B8ne180100ES6_, symObjAddr: 0x1102C, symBinAddr: 0x10005ACE8, symSize: 0x294 }
  - { offset: 0x47F8C, size: 0x8, addend: 0x0, symName: __ZNSt3__116reverse_iteratorINS0_IPNS_6vectorIdNS_9allocatorIdEEEEEEEppB8ne180100Ev, symObjAddr: 0x11668, symBinAddr: 0x10005B2FC, symSize: 0x100 }
  - { offset: 0x47FB2, size: 0x8, addend: 0x0, symName: __ZNKSt3__116reverse_iteratorINS0_IPNS_6vectorIdNS_9allocatorIdEEEEEEE4baseB8ne180100Ev, symObjAddr: 0x11768, symBinAddr: 0x10005B3FC, symSize: 0x250 }
  - { offset: 0x47FDE, size: 0x8, addend: 0x0, symName: __ZNSt3__119__to_address_helperINS_16reverse_iteratorINS1_IPNS_6vectorIdNS_9allocatorIdEEEEEEEEvE6__callB8ne180100ERKS8_, symObjAddr: 0x11A24, symBinAddr: 0x10005B64C, symSize: 0x70 }
  - { offset: 0x48001, size: 0x8, addend: 0x0, symName: __ZNKSt3__116reverse_iteratorINS0_IPNS_6vectorIdNS_9allocatorIdEEEEEEEptB8ne180100Ev, symObjAddr: 0x11A94, symBinAddr: 0x10005B6BC, symSize: 0x2E0 }
  - { offset: 0x48028, size: 0x8, addend: 0x0, symName: __ZNSt3__116reverse_iteratorIPNS_6vectorIdNS_9allocatorIdEEEEEpLB8ne180100El, symObjAddr: 0x12124, symBinAddr: 0x10005BD4C, symSize: 0x240 }
  - { offset: 0x4805C, size: 0x8, addend: 0x0, symName: __ZNSt3__116reverse_iteratorIPNS_6vectorIdNS_9allocatorIdEEEEEmmB8ne180100Ev, symObjAddr: 0x12364, symBinAddr: 0x10005BF8C, symSize: 0x1B0 }
  - { offset: 0x48082, size: 0x8, addend: 0x0, symName: __ZNSt3__116reverse_iteratorINS0_IPNS_6vectorIdNS_9allocatorIdEEEEEEEC2B8ne180100ES6_, symObjAddr: 0x12514, symBinAddr: 0x10005C13C, symSize: 0x27C }
  - { offset: 0x480BF, size: 0x8, addend: 0x0, symName: __ZNSt3__114__split_bufferINS_6vectorIdNS_9allocatorIdEEEERNS2_IS4_EEED2Ev, symObjAddr: 0x1289C, symBinAddr: 0x10005C3B8, symSize: 0x16C }
  - { offset: 0x480EB, size: 0x8, addend: 0x0, symName: __ZNSt3__114__split_bufferINS_6vectorIdNS_9allocatorIdEEEERNS2_IS4_EEE5clearB8ne180100Ev, symObjAddr: 0x12A08, symBinAddr: 0x10005C524, symSize: 0xB4 }
  - { offset: 0x48111, size: 0x8, addend: 0x0, symName: __ZNKSt3__114__split_bufferINS_6vectorIdNS_9allocatorIdEEEERNS2_IS4_EEE8capacityB8ne180100Ev, symObjAddr: 0x12AF0, symBinAddr: 0x10005C5D8, symSize: 0x144 }
  - { offset: 0x48137, size: 0x8, addend: 0x0, symName: __ZNSt3__114__split_bufferINS_6vectorIdNS_9allocatorIdEEEERNS2_IS4_EEE17__destruct_at_endB8ne180100EPS4_, symObjAddr: 0x12C34, symBinAddr: 0x10005C71C, symSize: 0x74 }
  - { offset: 0x4816B, size: 0x8, addend: 0x0, symName: __ZNSt3__114__split_bufferINS_6vectorIdNS_9allocatorIdEEEERNS2_IS4_EEE17__destruct_at_endB8ne180100EPS4_NS_17integral_constantIbLb0EEE, symObjAddr: 0x12CA8, symBinAddr: 0x10005C790, symSize: 0x224 }
  - { offset: 0x481AB, size: 0x8, addend: 0x0, symName: __ZNKSt3__114__split_bufferINS_6vectorIdNS_9allocatorIdEEEERNS2_IS4_EEE9__end_capB8ne180100Ev, symObjAddr: 0x13050, symBinAddr: 0x10005C9B4, symSize: 0x100 }
  - { offset: 0x481D1, size: 0x8, addend: 0x0, symName: __ZNKSt3__117__compressed_pairIPNS_6vectorIdNS_9allocatorIdEEEERNS2_IS4_EEE5firstB8ne180100Ev, symObjAddr: 0x13150, symBinAddr: 0x10005CAB4, symSize: 0x124 }
  - { offset: 0x481F7, size: 0x8, addend: 0x0, symName: __ZNSt3__16vectorIdNS_9allocatorIdEEEC2B8ne180100ESt16initializer_listIdE, symObjAddr: 0x13274, symBinAddr: 0x10005CBD8, symSize: 0x5E8 }
  - { offset: 0x48250, size: 0x8, addend: 0x0, symName: __ZNKSt16initializer_listIdE4sizeB8ne180100Ev, symObjAddr: 0x13C10, symBinAddr: 0x10005D1C0, symSize: 0xB0 }
  - { offset: 0x48276, size: 0x8, addend: 0x0, symName: __ZNSt3__16vectorIdNS_9allocatorIdEEE18__construct_at_endIPKdS6_EEvT_T0_m, symObjAddr: 0x142A0, symBinAddr: 0x10005D270, symSize: 0x4B8 }
  - { offset: 0x482F4, size: 0x8, addend: 0x0, symName: __ZNKSt16initializer_listIdE5beginB8ne180100Ev, symObjAddr: 0x14758, symBinAddr: 0x10005D728, symSize: 0xAC }
  - { offset: 0x4831A, size: 0x8, addend: 0x0, symName: __ZNKSt16initializer_listIdE3endB8ne180100Ev, symObjAddr: 0x14804, symBinAddr: 0x10005D7D4, symSize: 0x1C0 }
  - { offset: 0x48372, size: 0x8, addend: 0x0, symName: __ZNSt3__119__unwrap_range_implIPKdS2_E8__unwrapB8ne180100ES2_S2_, symObjAddr: 0x17638, symBinAddr: 0x10005DF14, symSize: 0x2FC }
  - { offset: 0x483AA, size: 0x8, addend: 0x0, symName: __ZNSt3__14pairIPKdS2_EC1B8ne180100IS2_S2_Li0EEEOT_OT0_, symObjAddr: 0x17958, symBinAddr: 0x10005E234, symSize: 0x88 }
  - { offset: 0x48408, size: 0x8, addend: 0x0, symName: __ZNSt3__118__unwrap_iter_implIPKdLb1EE8__unwrapB8ne180100ES2_, symObjAddr: 0x179E0, symBinAddr: 0x10005E2BC, symSize: 0x24 }
  - { offset: 0x4842B, size: 0x8, addend: 0x0, symName: __ZNSt3__14pairIPKdS2_EC2B8ne180100IS2_S2_Li0EEEOT_OT0_, symObjAddr: 0x17A18, symBinAddr: 0x10005E2F4, symSize: 0x210 }
  - { offset: 0x484AC, size: 0x8, addend: 0x0, symName: __ZNKSt3__114__copy_trivialclB8ne180100IKddLi0EEENS_4pairIPT_PT0_EES5_S5_S7_, symObjAddr: 0x18948, symBinAddr: 0x10005F224, symSize: 0x254 }
  - { offset: 0x48522, size: 0x8, addend: 0x0, symName: __ZNSt3__14pairIPKdPdEC1B8ne180100IRS2_S3_Li0EEEOT_OT0_, symObjAddr: 0x195CC, symBinAddr: 0x10005FEA8, symSize: 0x88 }
  - { offset: 0x48580, size: 0x8, addend: 0x0, symName: __ZNSt3__14pairIPKdPdEC2B8ne180100IRS2_S3_Li0EEEOT_OT0_, symObjAddr: 0x19654, symBinAddr: 0x10005FF30, symSize: 0x210 }
  - { offset: 0x485DE, size: 0x8, addend: 0x0, symName: __ZNSt3__14pairIPKdPdEC1B8ne180100IS2_S3_Li0EEEOT_OT0_, symObjAddr: 0x19864, symBinAddr: 0x100060140, symSize: 0x88 }
  - { offset: 0x4863C, size: 0x8, addend: 0x0, symName: __ZNSt3__14pairIPKdPdEC2B8ne180100IS2_S3_Li0EEEOT_OT0_, symObjAddr: 0x198EC, symBinAddr: 0x1000601C8, symSize: 0x210 }
  - { offset: 0x4869A, size: 0x8, addend: 0x0, symName: __ZNSt3__119__unwrap_range_implIPKdS2_E8__rewrapB8ne180100ES2_S2_, symObjAddr: 0x19AFC, symBinAddr: 0x1000603D8, symSize: 0x2C }
  - { offset: 0x486CB, size: 0x8, addend: 0x0, symName: __ZNSt3__118__unwrap_iter_implIPKdLb1EE8__rewrapB8ne180100ES2_S2_, symObjAddr: 0x19B70, symBinAddr: 0x10006044C, symSize: 0x138 }
  - { offset: 0x486FC, size: 0x8, addend: 0x0, symName: __ZNSt3__16vectorINS0_INS0_IdNS_9allocatorIdEEEENS1_IS3_EEEENS1_IS5_EEE22__construct_one_at_endB8ne180100IJRKS5_EEEvDpOT_, symObjAddr: 0x1B368, symBinAddr: 0x100060584, symSize: 0x578 }
  - { offset: 0x48751, size: 0x8, addend: 0x0, symName: __ZNSt3__16vectorINS0_INS0_IdNS_9allocatorIdEEEENS1_IS3_EEEENS1_IS5_EEE21__push_back_slow_pathIRKS5_EEPS5_OT_, symObjAddr: 0x1B8E0, symBinAddr: 0x100060AFC, symSize: 0x620 }
  - { offset: 0x487CF, size: 0x8, addend: 0x0, symName: __ZNSt3__116allocator_traitsINS_9allocatorINS_6vectorINS2_IdNS1_IdEEEENS1_IS4_EEEEEEE9constructB8ne180100IS6_JRKS6_EvvEEvRS7_PT_DpOT0_, symObjAddr: 0x1C158, symBinAddr: 0x10006111C, symSize: 0x80 }
  - { offset: 0x48823, size: 0x8, addend: 0x0, symName: __ZNKSt3__16vectorINS0_INS0_IdNS_9allocatorIdEEEENS1_IS3_EEEENS1_IS5_EEE11__recommendB8ne180100Em, symObjAddr: 0x25EE4, symBinAddr: 0x1000612D8, symSize: 0x44C }
  - { offset: 0x4887F, size: 0x8, addend: 0x0, symName: __ZNSt3__114__split_bufferINS_6vectorINS1_IdNS_9allocatorIdEEEENS2_IS4_EEEERNS2_IS6_EEEC1EmmS8_, symObjAddr: 0x26330, symBinAddr: 0x100061724, symSize: 0x90 }
  - { offset: 0x488D5, size: 0x8, addend: 0x0, symName: __ZNSt3__114__split_bufferINS_6vectorINS1_IdNS_9allocatorIdEEEENS2_IS4_EEEERNS2_IS6_EEED1Ev, symObjAddr: 0x26C14, symBinAddr: 0x100062008, symSize: 0x78 }
  - { offset: 0x4890B, size: 0x8, addend: 0x0, symName: __ZNSt3__114__split_bufferINS_6vectorINS1_IdNS_9allocatorIdEEEENS2_IS4_EEEERNS2_IS6_EEEC2EmmS8_, symObjAddr: 0x273B4, symBinAddr: 0x100062080, symSize: 0x7D8 }
  - { offset: 0x48986, size: 0x8, addend: 0x0, symName: __ZNSt3__117__compressed_pairIPNS_6vectorINS1_IdNS_9allocatorIdEEEENS2_IS4_EEEERNS2_IS6_EEEC1B8ne180100IDnS9_EEOT_OT0_, symObjAddr: 0x27B8C, symBinAddr: 0x100062858, symSize: 0x88 }
  - { offset: 0x489DE, size: 0x8, addend: 0x0, symName: __ZNSt3__114__split_bufferINS_6vectorINS1_IdNS_9allocatorIdEEEENS2_IS4_EEEERNS2_IS6_EEE7__allocB8ne180100Ev, symObjAddr: 0x27E98, symBinAddr: 0x1000628E0, symSize: 0xE4 }
  - { offset: 0x48A04, size: 0x8, addend: 0x0, symName: __ZNSt3__114__split_bufferINS_6vectorINS1_IdNS_9allocatorIdEEEENS2_IS4_EEEERNS2_IS6_EEE9__end_capB8ne180100Ev, symObjAddr: 0x27F7C, symBinAddr: 0x1000629C4, symSize: 0x100 }
  - { offset: 0x48A2A, size: 0x8, addend: 0x0, symName: __ZNSt3__117__compressed_pairIPNS_6vectorINS1_IdNS_9allocatorIdEEEENS2_IS4_EEEERNS2_IS6_EEEC2B8ne180100IDnS9_EEOT_OT0_, symObjAddr: 0x2807C, symBinAddr: 0x100062AC4, symSize: 0x198 }
  - { offset: 0x48A82, size: 0x8, addend: 0x0, symName: __ZNSt3__122__compressed_pair_elemIRNS_9allocatorINS_6vectorINS2_IdNS1_IdEEEENS1_IS4_EEEEEELi1ELb0EEC2B8ne180100IS8_vEEOT_, symObjAddr: 0x28214, symBinAddr: 0x100062C5C, symSize: 0xEC }
  - { offset: 0x48AC4, size: 0x8, addend: 0x0, symName: __ZNSt3__117__compressed_pairIPNS_6vectorINS1_IdNS_9allocatorIdEEEENS2_IS4_EEEERNS2_IS6_EEE6secondB8ne180100Ev, symObjAddr: 0x283D0, symBinAddr: 0x100062D48, symSize: 0x110 }
  - { offset: 0x48AEA, size: 0x8, addend: 0x0, symName: __ZNSt3__122__compressed_pair_elemIRNS_9allocatorINS_6vectorINS2_IdNS1_IdEEEENS1_IS4_EEEEEELi1ELb0EE5__getB8ne180100Ev, symObjAddr: 0x284E0, symBinAddr: 0x100062E58, symSize: 0xD8 }
  - { offset: 0x48B10, size: 0x8, addend: 0x0, symName: __ZNSt3__117__compressed_pairIPNS_6vectorINS1_IdNS_9allocatorIdEEEENS2_IS4_EEEERNS2_IS6_EEE5firstB8ne180100Ev, symObjAddr: 0x285B8, symBinAddr: 0x100062F30, symSize: 0x124 }
  - { offset: 0x48B36, size: 0x8, addend: 0x0, symName: __ZNSt3__116reverse_iteratorIPNS_6vectorINS1_IdNS_9allocatorIdEEEENS2_IS4_EEEEEC1B8ne180100ES7_, symObjAddr: 0x28F74, symBinAddr: 0x100063674, symSize: 0x80 }
  - { offset: 0x48B6E, size: 0x8, addend: 0x0, symName: __ZNKSt3__116reverse_iteratorIPNS_6vectorINS1_IdNS_9allocatorIdEEEENS2_IS4_EEEEE4baseB8ne180100Ev, symObjAddr: 0x28FF4, symBinAddr: 0x1000636F4, symSize: 0xB0 }
  - { offset: 0x48B94, size: 0x8, addend: 0x0, symName: __ZNSt3__129_AllocatorDestroyRangeReverseINS_9allocatorINS_6vectorINS2_IdNS1_IdEEEENS1_IS4_EEEEEENS_16reverse_iteratorIPS6_EEEC1B8ne180100ERS7_RSA_SD_, symObjAddr: 0x296F8, symBinAddr: 0x100063B90, symSize: 0x90 }
  - { offset: 0x48BEB, size: 0x8, addend: 0x0, symName: __ZNSt3__116allocator_traitsINS_9allocatorINS_6vectorINS2_IdNS1_IdEEEENS1_IS4_EEEEEEE9constructB8ne180100IS6_JS6_EvvEEvRS7_PT_DpOT0_, symObjAddr: 0x29824, symBinAddr: 0x100063CBC, symSize: 0x80 }
  - { offset: 0x48C3F, size: 0x8, addend: 0x0, symName: __ZNKSt3__116reverse_iteratorIPNS_6vectorINS1_IdNS_9allocatorIdEEEENS2_IS4_EEEEEdeB8ne180100Ev, symObjAddr: 0x29910, symBinAddr: 0x100063DA8, symSize: 0x184 }
  - { offset: 0x48C73, size: 0x8, addend: 0x0, symName: __ZNSt3__116reverse_iteratorIPNS_6vectorINS1_IdNS_9allocatorIdEEEENS2_IS4_EEEEEppB8ne180100Ev, symObjAddr: 0x29A94, symBinAddr: 0x100063F2C, symSize: 0x1B0 }
  - { offset: 0x48C99, size: 0x8, addend: 0x0, symName: __ZNSt3__128__exception_guard_exceptionsINS_29_AllocatorDestroyRangeReverseINS_9allocatorINS_6vectorINS3_IdNS2_IdEEEENS2_IS5_EEEEEENS_16reverse_iteratorIPS7_EEEEE10__completeB8ne180100Ev, symObjAddr: 0x29C44, symBinAddr: 0x1000640DC, symSize: 0xD8 }
  - { offset: 0x48CBF, size: 0x8, addend: 0x0, symName: __ZNSt3__128__exception_guard_exceptionsINS_29_AllocatorDestroyRangeReverseINS_9allocatorINS_6vectorINS3_IdNS2_IdEEEENS2_IS5_EEEEEENS_16reverse_iteratorIPS7_EEEEED1B8ne180100Ev, symObjAddr: 0x29D1C, symBinAddr: 0x1000641B4, symSize: 0x78 }
  - { offset: 0x48CE9, size: 0x8, addend: 0x0, symName: __ZNSt3__128__exception_guard_exceptionsINS_29_AllocatorDestroyRangeReverseINS_9allocatorINS_6vectorINS3_IdNS2_IdEEEENS2_IS5_EEEEEENS_16reverse_iteratorIPS7_EEEEEC1B8ne180100ESC_, symObjAddr: 0x29D94, symBinAddr: 0x10006422C, symSize: 0x84 }
  - { offset: 0x48D22, size: 0x8, addend: 0x0, symName: __ZNSt3__128__exception_guard_exceptionsINS_29_AllocatorDestroyRangeReverseINS_9allocatorINS_6vectorINS3_IdNS2_IdEEEENS2_IS5_EEEEEENS_16reverse_iteratorIPS7_EEEEEC2B8ne180100ESC_, symObjAddr: 0x29E18, symBinAddr: 0x1000642B0, symSize: 0xF8 }
  - { offset: 0x48D5B, size: 0x8, addend: 0x0, symName: __ZNSt3__129_AllocatorDestroyRangeReverseINS_9allocatorINS_6vectorINS2_IdNS1_IdEEEENS1_IS4_EEEEEENS_16reverse_iteratorIPS6_EEEC2B8ne180100ERS7_RSA_SD_, symObjAddr: 0x29F10, symBinAddr: 0x1000643A8, symSize: 0x20C }
  - { offset: 0x48DB2, size: 0x8, addend: 0x0, symName: __ZNSt3__16vectorINS0_IdNS_9allocatorIdEEEENS1_IS3_EEEC1B8ne180100EOS5_, symObjAddr: 0x2A258, symBinAddr: 0x1000646F0, symSize: 0x80 }
  - { offset: 0x48DED, size: 0x8, addend: 0x0, symName: __ZNSt3__16vectorINS0_IdNS_9allocatorIdEEEENS1_IS3_EEEC2B8ne180100EOS5_, symObjAddr: 0x2A2D8, symBinAddr: 0x100064770, symSize: 0x7E4 }
  - { offset: 0x48E2F, size: 0x8, addend: 0x0, symName: __ZNSt3__119__to_address_helperINS_16reverse_iteratorIPNS_6vectorINS2_IdNS_9allocatorIdEEEENS3_IS5_EEEEEEvE6__callB8ne180100ERKS9_, symObjAddr: 0x2AABC, symBinAddr: 0x100064F54, symSize: 0x70 }
  - { offset: 0x48E52, size: 0x8, addend: 0x0, symName: __ZNKSt3__116reverse_iteratorIPNS_6vectorINS1_IdNS_9allocatorIdEEEENS2_IS4_EEEEEptB8ne180100Ev, symObjAddr: 0x2AB2C, symBinAddr: 0x100064FC4, symSize: 0xB8 }
  - { offset: 0x48E78, size: 0x8, addend: 0x0, symName: __ZNSt3__128__exception_guard_exceptionsINS_29_AllocatorDestroyRangeReverseINS_9allocatorINS_6vectorINS3_IdNS2_IdEEEENS2_IS5_EEEEEENS_16reverse_iteratorIPS7_EEEEED2B8ne180100Ev, symObjAddr: 0x2B070, symBinAddr: 0x100065508, symSize: 0x17C }
  - { offset: 0x48EA2, size: 0x8, addend: 0x0, symName: __ZNKSt3__129_AllocatorDestroyRangeReverseINS_9allocatorINS_6vectorINS2_IdNS1_IdEEEENS1_IS4_EEEEEENS_16reverse_iteratorIPS6_EEEclB8ne180100Ev, symObjAddr: 0x2B1EC, symBinAddr: 0x100065684, symSize: 0x410 }
  - { offset: 0x48EC9, size: 0x8, addend: 0x0, symName: __ZNSt3__116reverse_iteratorINS0_IPNS_6vectorINS1_IdNS_9allocatorIdEEEENS2_IS4_EEEEEEEC1B8ne180100ES8_, symObjAddr: 0x2B7A0, symBinAddr: 0x100065C38, symSize: 0x294 }
  - { offset: 0x48F06, size: 0x8, addend: 0x0, symName: __ZNSt3__116reverse_iteratorINS0_IPNS_6vectorINS1_IdNS_9allocatorIdEEEENS2_IS4_EEEEEEEppB8ne180100Ev, symObjAddr: 0x2BDDC, symBinAddr: 0x10006624C, symSize: 0x100 }
  - { offset: 0x48F2C, size: 0x8, addend: 0x0, symName: __ZNKSt3__116reverse_iteratorINS0_IPNS_6vectorINS1_IdNS_9allocatorIdEEEENS2_IS4_EEEEEEE4baseB8ne180100Ev, symObjAddr: 0x2BEDC, symBinAddr: 0x10006634C, symSize: 0x250 }
  - { offset: 0x48F58, size: 0x8, addend: 0x0, symName: __ZNSt3__119__to_address_helperINS_16reverse_iteratorINS1_IPNS_6vectorINS2_IdNS_9allocatorIdEEEENS3_IS5_EEEEEEEEvE6__callB8ne180100ERKSA_, symObjAddr: 0x2C198, symBinAddr: 0x10006659C, symSize: 0x70 }
  - { offset: 0x48F7B, size: 0x8, addend: 0x0, symName: __ZNKSt3__116reverse_iteratorINS0_IPNS_6vectorINS1_IdNS_9allocatorIdEEEENS2_IS4_EEEEEEEptB8ne180100Ev, symObjAddr: 0x2C208, symBinAddr: 0x10006660C, symSize: 0x2E0 }
  - { offset: 0x48FA2, size: 0x8, addend: 0x0, symName: __ZNSt3__116reverse_iteratorIPNS_6vectorINS1_IdNS_9allocatorIdEEEENS2_IS4_EEEEEpLB8ne180100El, symObjAddr: 0x2C898, symBinAddr: 0x100066C9C, symSize: 0x240 }
  - { offset: 0x48FD6, size: 0x8, addend: 0x0, symName: __ZNSt3__116reverse_iteratorIPNS_6vectorINS1_IdNS_9allocatorIdEEEENS2_IS4_EEEEEmmB8ne180100Ev, symObjAddr: 0x2CAD8, symBinAddr: 0x100066EDC, symSize: 0x1B0 }
  - { offset: 0x48FFC, size: 0x8, addend: 0x0, symName: __ZNSt3__116reverse_iteratorINS0_IPNS_6vectorINS1_IdNS_9allocatorIdEEEENS2_IS4_EEEEEEEC2B8ne180100ES8_, symObjAddr: 0x2CC88, symBinAddr: 0x10006708C, symSize: 0x27C }
  - { offset: 0x49039, size: 0x8, addend: 0x0, symName: __ZNSt3__116reverse_iteratorIPNS_6vectorINS1_IdNS_9allocatorIdEEEENS2_IS4_EEEEEC2B8ne180100ES7_, symObjAddr: 0x2CF04, symBinAddr: 0x100067308, symSize: 0x10C }
  - { offset: 0x49071, size: 0x8, addend: 0x0, symName: __ZNSt3__114__split_bufferINS_6vectorINS1_IdNS_9allocatorIdEEEENS2_IS4_EEEERNS2_IS6_EEED2Ev, symObjAddr: 0x2D010, symBinAddr: 0x100067414, symSize: 0x16C }
  - { offset: 0x4909D, size: 0x8, addend: 0x0, symName: __ZNSt3__114__split_bufferINS_6vectorINS1_IdNS_9allocatorIdEEEENS2_IS4_EEEERNS2_IS6_EEE5clearB8ne180100Ev, symObjAddr: 0x2D17C, symBinAddr: 0x100067580, symSize: 0xB4 }
  - { offset: 0x490C3, size: 0x8, addend: 0x0, symName: __ZNKSt3__114__split_bufferINS_6vectorINS1_IdNS_9allocatorIdEEEENS2_IS4_EEEERNS2_IS6_EEE8capacityB8ne180100Ev, symObjAddr: 0x2D264, symBinAddr: 0x100067634, symSize: 0x144 }
  - { offset: 0x490E9, size: 0x8, addend: 0x0, symName: __ZNSt3__114__split_bufferINS_6vectorINS1_IdNS_9allocatorIdEEEENS2_IS4_EEEERNS2_IS6_EEE17__destruct_at_endB8ne180100EPS6_, symObjAddr: 0x2D3A8, symBinAddr: 0x100067778, symSize: 0x74 }
  - { offset: 0x4911D, size: 0x8, addend: 0x0, symName: __ZNSt3__114__split_bufferINS_6vectorINS1_IdNS_9allocatorIdEEEENS2_IS4_EEEERNS2_IS6_EEE17__destruct_at_endB8ne180100EPS6_NS_17integral_constantIbLb0EEE, symObjAddr: 0x2D41C, symBinAddr: 0x1000677EC, symSize: 0x224 }
  - { offset: 0x4915D, size: 0x8, addend: 0x0, symName: __ZNKSt3__114__split_bufferINS_6vectorINS1_IdNS_9allocatorIdEEEENS2_IS4_EEEERNS2_IS6_EEE9__end_capB8ne180100Ev, symObjAddr: 0x2D6BC, symBinAddr: 0x100067A10, symSize: 0x100 }
  - { offset: 0x49183, size: 0x8, addend: 0x0, symName: __ZNKSt3__117__compressed_pairIPNS_6vectorINS1_IdNS_9allocatorIdEEEENS2_IS4_EEEERNS2_IS6_EEE5firstB8ne180100Ev, symObjAddr: 0x2D7BC, symBinAddr: 0x100067B10, symSize: 0x124 }
  - { offset: 0x491A9, size: 0x8, addend: 0x0, symName: __ZNSt3__118basic_stringstreamIcNS_11char_traitsIcEENS_9allocatorIcEEED2Ev, symObjAddr: 0x2D8E0, symBinAddr: 0x100067C34, symSize: 0x264 }
  - { offset: 0x491E3, size: 0x8, addend: 0x0, symName: __ZThn16_NSt3__118basic_stringstreamIcNS_11char_traitsIcEENS_9allocatorIcEEED1Ev, symObjAddr: 0x2DB44, symBinAddr: 0x100067E98, symSize: 0x1C }
  - { offset: 0x491FA, size: 0x8, addend: 0x0, symName: __ZTv0_n24_NSt3__118basic_stringstreamIcNS_11char_traitsIcEENS_9allocatorIcEEED1Ev, symObjAddr: 0x2DB60, symBinAddr: 0x100067EB4, symSize: 0xB0 }
  - { offset: 0x49216, size: 0x8, addend: 0x0, symName: __ZNSt3__115basic_stringbufIcNS_11char_traitsIcEENS_9allocatorIcEEED1Ev, symObjAddr: 0x2DC10, symBinAddr: 0x100067F64, symSize: 0x78 }
  - { offset: 0x49243, size: 0x8, addend: 0x0, symName: __ZNSt3__115basic_stringbufIcNS_11char_traitsIcEENS_9allocatorIcEEED2Ev, symObjAddr: 0x2DC88, symBinAddr: 0x100067FDC, symSize: 0xD4 }
  - { offset: 0x49270, size: 0x8, addend: 0x0, symName: __ZNSt3__114basic_ifstreamIcNS_11char_traitsIcEEED2Ev, symObjAddr: 0x2E028, symBinAddr: 0x1000680B0, symSize: 0x1E8 }
  - { offset: 0x492AA, size: 0x8, addend: 0x0, symName: __ZTv0_n24_NSt3__114basic_ifstreamIcNS_11char_traitsIcEEED1Ev, symObjAddr: 0x2E210, symBinAddr: 0x100068298, symSize: 0xB0 }
  - { offset: 0x492C1, size: 0x8, addend: 0x0, symName: __ZNSt3__16vectorINS0_IdNS_9allocatorIdEEEENS1_IS3_EEE22__construct_one_at_endB8ne180100IJRKS3_EEEvDpOT_, symObjAddr: 0x2FBF8, symBinAddr: 0x100068348, symSize: 0x578 }
  - { offset: 0x49316, size: 0x8, addend: 0x0, symName: __ZNSt3__16vectorINS0_IdNS_9allocatorIdEEEENS1_IS3_EEE21__push_back_slow_pathIRKS3_EEPS3_OT_, symObjAddr: 0x30170, symBinAddr: 0x1000688C0, symSize: 0x620 }
  - { offset: 0x4937B, size: 0x8, addend: 0x0, symName: __ZNSt3__125uniform_real_distributionIdEC2B8ne180100Edd, symObjAddr: 0x3111C, symBinAddr: 0x100068EE0, symSize: 0x88 }
  - { offset: 0x493C1, size: 0x8, addend: 0x0, symName: __ZNSt3__125uniform_real_distributionIdE10param_typeC1B8ne180100Edd, symObjAddr: 0x311A4, symBinAddr: 0x100068F68, symSize: 0x88 }
  - { offset: 0x49407, size: 0x8, addend: 0x0, symName: __ZNSt3__125uniform_real_distributionIdE10param_typeC2B8ne180100Edd, symObjAddr: 0x3122C, symBinAddr: 0x100068FF0, symSize: 0x110 }
  - { offset: 0x4944D, size: 0x8, addend: 0x0, symName: __ZNSt3__125uniform_real_distributionIdEclINS_23mersenne_twister_engineIjLm32ELm624ELm397ELm31ELj2567483615ELm11ELj4294967295ELm7ELj2636928640ELm15ELj4022730752ELm18ELj1812433253EEEEEdRT_RKNS1_10param_typeE, symObjAddr: 0x3133C, symBinAddr: 0x100069100, symSize: 0x17C }
  - { offset: 0x49499, size: 0x8, addend: 0x0, symName: __ZNKSt3__125uniform_real_distributionIdE10param_type1bB8ne180100Ev, symObjAddr: 0x314B8, symBinAddr: 0x10006927C, symSize: 0xB0 }
  - { offset: 0x494BF, size: 0x8, addend: 0x0, symName: __ZNKSt3__125uniform_real_distributionIdE10param_type1aB8ne180100Ev, symObjAddr: 0x31568, symBinAddr: 0x10006932C, symSize: 0xAC }
  - { offset: 0x494E5, size: 0x8, addend: 0x0, symName: __ZNSt3__123mersenne_twister_engineIjLm32ELm624ELm397ELm31ELj2567483615ELm11ELj4294967295ELm7ELj2636928640ELm15ELj4022730752ELm18ELj1812433253EE3maxB8ne180100Ev, symObjAddr: 0x317BC, symBinAddr: 0x100069580, symSize: 0x8 }
  - { offset: 0x494F9, size: 0x8, addend: 0x0, symName: __ZNSt3__19basic_iosIcNS_11char_traitsIcEEEC2B8ne180100Ev, symObjAddr: 0x326C4, symBinAddr: 0x100069588, symSize: 0x110 }
  - { offset: 0x49523, size: 0x8, addend: 0x0, symName: __ZNSt3__113basic_istreamIcNS_11char_traitsIcEEEC2B8ne180100EPNS_15basic_streambufIcS2_EE, symObjAddr: 0x327D4, symBinAddr: 0x100069698, symSize: 0x3B8 }
  - { offset: 0x49568, size: 0x8, addend: 0x0, symName: __ZNSt3__113basic_filebufIcNS_11char_traitsIcEEE4openERKNS_12basic_stringIcS2_NS_9allocatorIcEEEEj, symObjAddr: 0x32B8C, symBinAddr: 0x100069A50, symSize: 0x138 }
  - { offset: 0x495AE, size: 0x8, addend: 0x0, symName: __ZNSt3__18ios_baseC2B8ne180100Ev, symObjAddr: 0x32DEC, symBinAddr: 0x100069B88, symSize: 0xC4 }
  - { offset: 0x495D8, size: 0x8, addend: 0x0, symName: __ZNSt3__19basic_iosIcNS_11char_traitsIcEEE4initB8ne180100EPNS_15basic_streambufIcS2_EE, symObjAddr: 0x32EB0, symBinAddr: 0x100069C4C, symSize: 0x2C8 }
  - { offset: 0x4960F, size: 0x8, addend: 0x0, symName: __ZNKSt3__112basic_stringIcNS_11char_traitsIcEENS_9allocatorIcEEE5c_strB8ne180100Ev, symObjAddr: 0x33180, symBinAddr: 0x100069F14, symSize: 0x6C }
  - { offset: 0x49635, size: 0x8, addend: 0x0, symName: __ZNKSt3__112basic_stringIcNS_11char_traitsIcEENS_9allocatorIcEEE4dataB8ne180100Ev, symObjAddr: 0x331EC, symBinAddr: 0x100069F80, symSize: 0x70 }
  - { offset: 0x4965B, size: 0x8, addend: 0x0, symName: __ZNKSt3__112basic_stringIcNS_11char_traitsIcEENS_9allocatorIcEEE13__get_pointerB8ne180100Ev, symObjAddr: 0x33270, symBinAddr: 0x10006A004, symSize: 0x98 }
  - { offset: 0x49681, size: 0x8, addend: 0x0, symName: __ZNKSt3__112basic_stringIcNS_11char_traitsIcEENS_9allocatorIcEEE18__get_long_pointerB8ne180100Ev, symObjAddr: 0x33504, symBinAddr: 0x10006A09C, symSize: 0x208 }
  - { offset: 0x496A7, size: 0x8, addend: 0x0, symName: __ZNKSt3__112basic_stringIcNS_11char_traitsIcEENS_9allocatorIcEEE19__get_short_pointerB8ne180100Ev, symObjAddr: 0x3370C, symBinAddr: 0x10006A2A4, symSize: 0x1CC }
  - { offset: 0x496CD, size: 0x8, addend: 0x0, symName: __ZNSt3__114pointer_traitsIPKcE10pointer_toB8ne180100ERS1_, symObjAddr: 0x33AA8, symBinAddr: 0x10006A470, symSize: 0x14 }
  - { offset: 0x496F0, size: 0x8, addend: 0x0, symName: __ZNKSt3__113basic_filebufIcNS_11char_traitsIcEEE7is_openEv, symObjAddr: 0x33C9C, symBinAddr: 0x10006A484, symSize: 0x144 }
  - { offset: 0x49736, size: 0x8, addend: 0x0, symName: __ZNKSt3__112basic_stringIcNS_11char_traitsIcEENS_9allocatorIcEEE4sizeB8ne180100Ev, symObjAddr: 0x37DF8, symBinAddr: 0x10006A5C8, symSize: 0x98 }
  - { offset: 0x4975C, size: 0x8, addend: 0x0, symName: __ZNKSt3__112basic_stringIcNS_11char_traitsIcEENS_9allocatorIcEEE15__get_long_sizeB8ne180100Ev, symObjAddr: 0x37E90, symBinAddr: 0x10006A660, symSize: 0x210 }
  - { offset: 0x49782, size: 0x8, addend: 0x0, symName: __ZNKSt3__112basic_stringIcNS_11char_traitsIcEENS_9allocatorIcEEE16__get_short_sizeB8ne180100Ev, symObjAddr: 0x380A0, symBinAddr: 0x10006A870, symSize: 0x1F8 }
  - { offset: 0x497A8, size: 0x8, addend: 0x0, symName: __ZNKSt3__19basic_iosIcNS_11char_traitsIcEEE4failB8ne180100Ev, symObjAddr: 0x38298, symBinAddr: 0x10006AA68, symSize: 0x124 }
  - { offset: 0x497CE, size: 0x8, addend: 0x0, symName: __ZNKSt3__18ios_base4failB8ne180100Ev, symObjAddr: 0x383BC, symBinAddr: 0x10006AB8C, symSize: 0x170 }
  - { offset: 0x497F6, size: 0x8, addend: 0x0, symName: __ZNSt3__114basic_iostreamIcNS_11char_traitsIcEEEC2B8ne180100EPNS_15basic_streambufIcS2_EE, symObjAddr: 0x3852C, symBinAddr: 0x10006ACFC, symSize: 0x33C }
  - { offset: 0x4983C, size: 0x8, addend: 0x0, symName: __ZNSt3__115basic_stringbufIcNS_11char_traitsIcEENS_9allocatorIcEEEC1B8ne180100ERKNS_12basic_stringIcS2_S4_EEj, symObjAddr: 0x38868, symBinAddr: 0x10006B038, symSize: 0x88 }
  - { offset: 0x49884, size: 0x8, addend: 0x0, symName: __ZNSt3__113basic_ostreamIcNS_11char_traitsIcEEEC2B8ne180100Ev, symObjAddr: 0x388F0, symBinAddr: 0x10006B0C0, symSize: 0x1CC }
  - { offset: 0x498BB, size: 0x8, addend: 0x0, symName: __ZNSt3__115basic_stringbufIcNS_11char_traitsIcEENS_9allocatorIcEEEC2B8ne180100ERKNS_12basic_stringIcS2_S4_EEj, symObjAddr: 0x38ABC, symBinAddr: 0x10006B28C, symSize: 0x548 }
  - { offset: 0x49906, size: 0x8, addend: 0x0, symName: __ZNKSt3__112basic_stringIcNS_11char_traitsIcEENS_9allocatorIcEEE13get_allocatorB8ne180100Ev, symObjAddr: 0x39004, symBinAddr: 0x10006B7D4, symSize: 0x6C }
  - { offset: 0x4992C, size: 0x8, addend: 0x0, symName: __ZNSt3__112basic_stringIcNS_11char_traitsIcEENS_9allocatorIcEEEC1B8ne180100ERKS4_, symObjAddr: 0x39070, symBinAddr: 0x10006B840, symSize: 0x80 }
  - { offset: 0x49965, size: 0x8, addend: 0x0, symName: __ZNKSt3__112basic_stringIcNS_11char_traitsIcEENS_9allocatorIcEEE7__allocB8ne180100Ev, symObjAddr: 0x390F0, symBinAddr: 0x10006B8C0, symSize: 0xDC }
  - { offset: 0x4998B, size: 0x8, addend: 0x0, symName: __ZNKSt3__117__compressed_pairINS_12basic_stringIcNS_11char_traitsIcEENS_9allocatorIcEEE5__repES5_E6secondB8ne180100Ev, symObjAddr: 0x391CC, symBinAddr: 0x10006B99C, symSize: 0x108 }
  - { offset: 0x499B1, size: 0x8, addend: 0x0, symName: __ZNKSt3__122__compressed_pair_elemINS_9allocatorIcEELi1ELb1EE5__getB8ne180100Ev, symObjAddr: 0x392D4, symBinAddr: 0x10006BAA4, symSize: 0x74 }
  - { offset: 0x499D7, size: 0x8, addend: 0x0, symName: __ZNSt3__112basic_stringIcNS_11char_traitsIcEENS_9allocatorIcEEEC2B8ne180100ERKS4_, symObjAddr: 0x39348, symBinAddr: 0x10006BB18, symSize: 0x2C4 }
  - { offset: 0x49A12, size: 0x8, addend: 0x0, symName: __ZNSt3__117__compressed_pairINS_12basic_stringIcNS_11char_traitsIcEENS_9allocatorIcEEE5__repES5_EC1B8ne180100INS_16__value_init_tagERKS5_EEOT_OT0_, symObjAddr: 0x3960C, symBinAddr: 0x10006BDDC, symSize: 0x88 }
  - { offset: 0x49A6A, size: 0x8, addend: 0x0, symName: __ZNSt3__117__compressed_pairINS_12basic_stringIcNS_11char_traitsIcEENS_9allocatorIcEEE5__repES5_EC2B8ne180100INS_16__value_init_tagERKS5_EEOT_OT0_, symObjAddr: 0x39694, symBinAddr: 0x10006BE64, symSize: 0x124 }
  - { offset: 0x49AC2, size: 0x8, addend: 0x0, symName: __ZNSt3__122__compressed_pair_elemINS_9allocatorIcEELi1ELb1EEC2B8ne180100IRKS2_vEEOT_, symObjAddr: 0x397B8, symBinAddr: 0x10006BF88, symSize: 0x58 }
  - { offset: 0x49B22, size: 0x8, addend: 0x0, symName: __ZNKSt3__113basic_istreamIcNS_11char_traitsIcEEE6sentrycvbB8ne180100Ev, symObjAddr: 0x39810, symBinAddr: 0x10006BFE0, symSize: 0xE8 }
  - { offset: 0x49B48, size: 0x8, addend: 0x0, symName: __ZNSt3__112basic_stringIcNS_11char_traitsIcEENS_9allocatorIcEEE5clearB8ne180100Ev, symObjAddr: 0x398F8, symBinAddr: 0x10006C0C8, symSize: 0x3AC }
  - { offset: 0x49B81, size: 0x8, addend: 0x0, symName: __ZNSt3__115basic_streambufIcNS_11char_traitsIcEEE6sbumpcB8ne180100Ev, symObjAddr: 0x39CA4, symBinAddr: 0x10006C474, symSize: 0x4DC }
  - { offset: 0x49BA7, size: 0x8, addend: 0x0, symName: __ZNSt3__111char_traitsIcE12to_char_typeB8ne180100Ei, symObjAddr: 0x3A180, symBinAddr: 0x10006C950, symSize: 0x18 }
  - { offset: 0x49BCB, size: 0x8, addend: 0x0, symName: __ZNSt3__111char_traitsIcE2eqEcc, symObjAddr: 0x3A198, symBinAddr: 0x10006C968, symSize: 0x28 }
  - { offset: 0x49BFC, size: 0x8, addend: 0x0, symName: __ZNKSt3__112basic_stringIcNS_11char_traitsIcEENS_9allocatorIcEEE8max_sizeB8ne180100Ev, symObjAddr: 0x3A1C0, symBinAddr: 0x10006C990, symSize: 0x1B8 }
  - { offset: 0x49C4E, size: 0x8, addend: 0x0, symName: __ZNSt3__18ios_base18__setstate_nothrowB8ne180100Ej, symObjAddr: 0x3A378, symBinAddr: 0x10006CB48, symSize: 0x320 }
  - { offset: 0x49C83, size: 0x8, addend: 0x0, symName: __ZNKSt3__19basic_iosIcNS_11char_traitsIcEEE10exceptionsB8ne180100Ev, symObjAddr: 0x3A698, symBinAddr: 0x10006CE68, symSize: 0x120 }
  - { offset: 0x49CA9, size: 0x8, addend: 0x0, symName: __ZNSt3__111char_traitsIcE6assignB8ne180100ERcRKc, symObjAddr: 0x3A7B8, symBinAddr: 0x10006CF88, symSize: 0xF4 }
  - { offset: 0x49CDA, size: 0x8, addend: 0x0, symName: __ZNSt3__112basic_stringIcNS_11char_traitsIcEENS_9allocatorIcEEE15__set_long_sizeB8ne180100Em, symObjAddr: 0x3A8AC, symBinAddr: 0x10006D07C, symSize: 0x220 }
  - { offset: 0x49D0F, size: 0x8, addend: 0x0, symName: __ZNSt3__112basic_stringIcNS_11char_traitsIcEENS_9allocatorIcEEE16__set_short_sizeB8ne180100Em, symObjAddr: 0x3AACC, symBinAddr: 0x10006D29C, symSize: 0x394 }
  - { offset: 0x49D44, size: 0x8, addend: 0x0, symName: __ZNKSt3__112basic_stringIcNS_11char_traitsIcEENS_9allocatorIcEEE17__annotate_shrinkB8ne180100Em, symObjAddr: 0x3AE60, symBinAddr: 0x10006D630, symSize: 0x64 }
  - { offset: 0x49D79, size: 0x8, addend: 0x0, symName: __ZNSt3__111char_traitsIcE11to_int_typeB8ne180100Ec, symObjAddr: 0x3AEC4, symBinAddr: 0x10006D694, symSize: 0x14 }
  - { offset: 0x49DA7, size: 0x8, addend: 0x0, symName: __ZNSt3__116allocator_traitsINS_9allocatorIcEEE8max_sizeB8ne180100IS2_vvEEmRKS2_, symObjAddr: 0x3AED8, symBinAddr: 0x10006D6A8, symSize: 0x54 }
  - { offset: 0x49DD2, size: 0x8, addend: 0x0, symName: __ZNKSt3__18ios_base10exceptionsB8ne180100Ev, symObjAddr: 0x3AF2C, symBinAddr: 0x10006D6FC, symSize: 0x160 }
...
