---
triple:          'arm64-apple-darwin'
binary-path:     main
relocations:
  - { offset: 0x26, size: 0x8, addend: 0x0, symName: _main, symObjAddr: 0x0, symBinAddr: 0x100001264, symSize: 0xD48 }
  - { offset: 0x3B, size: 0x8, addend: 0x0, symName: _.str, symObjAddr: 0x1260, symBinAddr: 0x100016FA0, symSize: 0x0 }
  - { offset: 0x6B, size: 0x8, addend: 0x0, symName: _.str.1, symObjAddr: 0x12A0, symBinAddr: 0x100016FE0, symSize: 0x0 }
  - { offset: 0x80, size: 0x8, addend: 0x0, symName: _main, symObjAddr: 0x0, symBinAddr: 0x100001264, symSize: 0xD48 }
  - { offset: 0x3E65, size: 0x8, addend: 0x0, symName: __ZNSt3__118__constexpr_strlenB8ne180100EPKc, symObjAddr: 0x117C, symBinAddr: 0x1000023E0, symSize: 0x24 }
  - { offset: 0x5934, size: 0x8, addend: 0x0, symName: __ZNSt3__15arrayINS0_IdLm64EEELm64EEixB8ne180100Em, symObjAddr: 0xD48, symBinAddr: 0x100001FAC, symSize: 0x20 }
  - { offset: 0x5966, size: 0x8, addend: 0x0, symName: __ZNSt3__15arrayIdLm64EEixB8ne180100Em, symObjAddr: 0xD68, symBinAddr: 0x100001FCC, symSize: 0x20 }
  - { offset: 0x59D1, size: 0x8, addend: 0x0, symName: __ZNSt3__15arrayINS0_IdLm64EEELm8EEixB8ne180100Em, symObjAddr: 0xD88, symBinAddr: 0x100001FEC, symSize: 0x20 }
  - { offset: 0x5A75, size: 0x8, addend: 0x0, symName: __ZNSt3__15arrayINS0_IdLm8EEELm8EEixB8ne180100Em, symObjAddr: 0xDA8, symBinAddr: 0x10000200C, symSize: 0x20 }
  - { offset: 0x5AA7, size: 0x8, addend: 0x0, symName: __ZNSt3__15arrayIdLm8EEixB8ne180100Em, symObjAddr: 0xDC8, symBinAddr: 0x10000202C, symSize: 0x20 }
  - { offset: 0x5B12, size: 0x8, addend: 0x0, symName: __ZNSt3__15arrayINS0_IdLm8EEELm10EEixB8ne180100Em, symObjAddr: 0xDE8, symBinAddr: 0x10000204C, symSize: 0x20 }
  - { offset: 0x5D12, size: 0x8, addend: 0x0, symName: __ZNSt3__112basic_stringIcNS_11char_traitsIcEENS_9allocatorIcEEEC1B8ne180100ILi0EEEPKc, symObjAddr: 0xE08, symBinAddr: 0x10000206C, symSize: 0x34 }
  - { offset: 0x5D4F, size: 0x8, addend: 0x0, symName: __ZNSt3__112basic_stringIcNS_11char_traitsIcEENS_9allocatorIcEEEC2B8ne180100ILi0EEEPKc, symObjAddr: 0xE3C, symBinAddr: 0x1000020A0, symSize: 0x208 }
  - { offset: 0x5D93, size: 0x8, addend: 0x0, symName: __ZNSt3__117__compressed_pairINS_12basic_stringIcNS_11char_traitsIcEENS_9allocatorIcEEE5__repES5_EC1B8ne180100INS_18__default_init_tagESA_EEOT_OT0_, symObjAddr: 0x1044, symBinAddr: 0x1000022A8, symSize: 0x3C }
  - { offset: 0x5DE9, size: 0x8, addend: 0x0, symName: __ZNSt3__111char_traitsIcE6lengthB8ne180100EPKc, symObjAddr: 0x1080, symBinAddr: 0x1000022E4, symSize: 0x40 }
  - { offset: 0x5E0B, size: 0x8, addend: 0x0, symName: __ZNSt3__117__compressed_pairINS_12basic_stringIcNS_11char_traitsIcEENS_9allocatorIcEEE5__repES5_EC2B8ne180100INS_18__default_init_tagESA_EEOT_OT0_, symObjAddr: 0x10C0, symBinAddr: 0x100002324, symSize: 0x3C }
  - { offset: 0x5E61, size: 0x8, addend: 0x0, symName: __ZNSt3__122__compressed_pair_elemINS_12basic_stringIcNS_11char_traitsIcEENS_9allocatorIcEEE5__repELi0ELb0EEC2B8ne180100ENS_18__default_init_tagE, symObjAddr: 0x10FC, symBinAddr: 0x100002360, symSize: 0x14 }
  - { offset: 0x5E93, size: 0x8, addend: 0x0, symName: __ZNSt3__122__compressed_pair_elemINS_9allocatorIcEELi1ELb1EEC2B8ne180100ENS_18__default_init_tagE, symObjAddr: 0x1110, symBinAddr: 0x100002374, symSize: 0x2C }
  - { offset: 0x5EC5, size: 0x8, addend: 0x0, symName: __ZNSt3__19allocatorIcEC2B8ne180100Ev, symObjAddr: 0x113C, symBinAddr: 0x1000023A0, symSize: 0x2C }
  - { offset: 0x5EED, size: 0x8, addend: 0x0, symName: __ZNSt3__116__non_trivial_ifILb1ENS_9allocatorIcEEEC2B8ne180100Ev, symObjAddr: 0x1168, symBinAddr: 0x1000023CC, symSize: 0x14 }
  - { offset: 0x8337, size: 0x8, addend: 0x0, symName: _.str, symObjAddr: 0xC380, symBinAddr: 0x100017020, symSize: 0x0 }
  - { offset: 0x8367, size: 0x8, addend: 0x0, symName: _.str.1, symObjAddr: 0xC400, symBinAddr: 0x1000170A0, symSize: 0x0 }
  - { offset: 0x8384, size: 0x8, addend: 0x0, symName: _.str.2, symObjAddr: 0xC440, symBinAddr: 0x1000170E0, symSize: 0x0 }
  - { offset: 0x83A1, size: 0x8, addend: 0x0, symName: _.str.3, symObjAddr: 0xC480, symBinAddr: 0x100017120, symSize: 0x0 }
  - { offset: 0x83B2, size: 0x8, addend: 0x0, symName: _.str.4, symObjAddr: 0xC4C0, symBinAddr: 0x100017160, symSize: 0x0 }
  - { offset: 0x83C3, size: 0x8, addend: 0x0, symName: _.str.5, symObjAddr: 0xC500, symBinAddr: 0x1000171A0, symSize: 0x0 }
  - { offset: 0x83E0, size: 0x8, addend: 0x0, symName: _.str.6, symObjAddr: 0xC540, symBinAddr: 0x1000171E0, symSize: 0x0 }
  - { offset: 0x83FD, size: 0x8, addend: 0x0, symName: _.str.7, symObjAddr: 0xC580, symBinAddr: 0x100017220, symSize: 0x0 }
  - { offset: 0x841A, size: 0x8, addend: 0x0, symName: _.str.8, symObjAddr: 0xC5A0, symBinAddr: 0x100017240, symSize: 0x0 }
  - { offset: 0x8437, size: 0x8, addend: 0x0, symName: _.str.9, symObjAddr: 0xC600, symBinAddr: 0x1000172A0, symSize: 0x0 }
  - { offset: 0x8454, size: 0x8, addend: 0x0, symName: _.str.10, symObjAddr: 0xC640, symBinAddr: 0x1000172E0, symSize: 0x0 }
  - { offset: 0x8465, size: 0x8, addend: 0x0, symName: _.str.11, symObjAddr: 0xC680, symBinAddr: 0x100017320, symSize: 0x0 }
  - { offset: 0x8476, size: 0x8, addend: 0x0, symName: _.str.12, symObjAddr: 0xC6C0, symBinAddr: 0x100017360, symSize: 0x0 }
  - { offset: 0x8493, size: 0x8, addend: 0x0, symName: _.str.13, symObjAddr: 0xC700, symBinAddr: 0x1000173A0, symSize: 0x0 }
  - { offset: 0x84A4, size: 0x8, addend: 0x0, symName: _.str.14, symObjAddr: 0xC740, symBinAddr: 0x1000173E0, symSize: 0x0 }
  - { offset: 0x84B5, size: 0x8, addend: 0x0, symName: _.str.15, symObjAddr: 0xC780, symBinAddr: 0x100017420, symSize: 0x0 }
  - { offset: 0x84C6, size: 0x8, addend: 0x0, symName: _.str.16, symObjAddr: 0xC7E0, symBinAddr: 0x100017480, symSize: 0x0 }
  - { offset: 0x84E3, size: 0x8, addend: 0x0, symName: _.str.17, symObjAddr: 0xC800, symBinAddr: 0x1000174A0, symSize: 0x0 }
  - { offset: 0x8500, size: 0x8, addend: 0x0, symName: _.str.18, symObjAddr: 0xC820, symBinAddr: 0x1000174C0, symSize: 0x0 }
  - { offset: 0x851D, size: 0x8, addend: 0x0, symName: _.str.19, symObjAddr: 0xC880, symBinAddr: 0x100017520, symSize: 0x0 }
  - { offset: 0x853A, size: 0x8, addend: 0x0, symName: _.str.20, symObjAddr: 0xC8C0, symBinAddr: 0x100017560, symSize: 0x0 }
  - { offset: 0x854B, size: 0x8, addend: 0x0, symName: _.str.21, symObjAddr: 0xC900, symBinAddr: 0x1000175A0, symSize: 0x0 }
  - { offset: 0x8568, size: 0x8, addend: 0x0, symName: _.str.22, symObjAddr: 0xC960, symBinAddr: 0x100017600, symSize: 0x0 }
  - { offset: 0x8585, size: 0x8, addend: 0x0, symName: _.str.23, symObjAddr: 0xC9C0, symBinAddr: 0x100017660, symSize: 0x0 }
  - { offset: 0x85A2, size: 0x8, addend: 0x0, symName: _.str.24, symObjAddr: 0xCA20, symBinAddr: 0x1000176C0, symSize: 0x0 }
  - { offset: 0x85C0, size: 0x8, addend: 0x0, symName: _.str.25, symObjAddr: 0xCA80, symBinAddr: 0x100017720, symSize: 0x0 }
  - { offset: 0x85DE, size: 0x8, addend: 0x0, symName: _.str.26, symObjAddr: 0xCAE0, symBinAddr: 0x100017780, symSize: 0x0 }
  - { offset: 0xBA7E, size: 0x8, addend: 0x0, symName: __ZNSt3__124__put_character_sequenceB8ne180100IcNS_11char_traitsIcEEEERNS_13basic_ostreamIT_T0_EES7_PKS4_m, symObjAddr: 0x73FC, symBinAddr: 0x1000097A0, symSize: 0x838 }
  - { offset: 0xC9A1, size: 0x8, addend: 0x0, symName: __ZNSt3__1lsB8ne180100INS_11char_traitsIcEEEERNS_13basic_ostreamIcT_EES6_PKc, symObjAddr: 0xFA8, symBinAddr: 0x10000340C, symSize: 0x48 }
  - { offset: 0xC9E7, size: 0x8, addend: 0x0, symName: __ZNSt3__14endlB8ne180100IcNS_11char_traitsIcEEEERNS_13basic_ostreamIT_T0_EES7_, symObjAddr: 0x101C, symBinAddr: 0x100003480, symSize: 0xD4 }
  - { offset: 0xE087, size: 0x8, addend: 0x0, symName: __ZNSt3__18distanceB8ne180100IPNS_5arrayIdLm1EEEEENS_15iterator_traitsIT_E15difference_typeES5_S5_, symObjAddr: 0x37AC, symBinAddr: 0x100005B50, symSize: 0x2C }
  - { offset: 0xE0CA, size: 0x8, addend: 0x0, symName: '__ZNSt3__111max_elementB8ne180100IPNS_5arrayIdLm1EEEZ11acceleratorRKNS1_INS1_IS2_Lm64EEELm500EEERKNS1_INS1_IdLm10EEELm500EEERNS1_INS1_IdLm64EEELm64EEERNS1_ISC_Lm8EEERNS1_INS1_IdLm8EEELm8EEERNS1_ISH_Lm10EEERSC_RSH_SN_RS8_E3$_0EET_SQ_SQ_T0_', symObjAddr: 0x37FC, symBinAddr: 0x100005BA0, symSize: 0x1BC }
  - { offset: 0xE12A, size: 0x8, addend: 0x0, symName: __ZNSt3__18distanceB8ne180100IPKdEENS_15iterator_traitsIT_E15difference_typeES4_S4_, symObjAddr: 0x39E0, symBinAddr: 0x100005D84, symSize: 0x2C }
  - { offset: 0xE440, size: 0x8, addend: 0x0, symName: __ZNSt3__111max_elementB8ne180100IPKdEET_S3_S3_, symObjAddr: 0x3A58, symBinAddr: 0x100005DFC, symSize: 0x2C }
  - { offset: 0xE483, size: 0x8, addend: 0x0, symName: __ZNSt3__13minB8ne180100IiEERKT_S3_S3_, symObjAddr: 0x6BCC, symBinAddr: 0x100008F70, symSize: 0x2C }
  - { offset: 0xE4C6, size: 0x8, addend: 0x0, symName: __ZNSt3__110__distanceB8ne180100IPNS_5arrayIdLm1EEEEENS_15iterator_traitsIT_E15difference_typeES5_S5_NS_26random_access_iterator_tagE, symObjAddr: 0x6BF8, symBinAddr: 0x100008F9C, symSize: 0x28 }
  - { offset: 0xE513, size: 0x8, addend: 0x0, symName: '__ZNSt3__113__max_elementB8ne180100IRZ11acceleratorRKNS_5arrayINS1_INS1_IdLm1EEELm64EEELm500EEERKNS1_INS1_IdLm10EEELm500EEERNS1_INS1_IdLm64EEELm64EEERNS1_ISB_Lm8EEERNS1_INS1_IdLm8EEELm8EEERNS1_ISG_Lm10EEERSB_RSG_SM_RS7_E3$_0PS2_EET0_SR_SR_T_', symObjAddr: 0x6C34, symBinAddr: 0x100008FD8, symSize: 0x9C }
  - { offset: 0xE589, size: 0x8, addend: 0x0, symName: __ZNSt3__110__distanceB8ne180100IPKdEENS_15iterator_traitsIT_E15difference_typeES4_S4_NS_26random_access_iterator_tagE, symObjAddr: 0x6DC0, symBinAddr: 0x100009164, symSize: 0x28 }
  - { offset: 0xE5D6, size: 0x8, addend: 0x0, symName: __ZNSt3__111max_elementB8ne180100IPKdNS_6__lessIvvEEEET_S5_S5_T0_, symObjAddr: 0x6DFC, symBinAddr: 0x1000091A0, symSize: 0x1BC }
  - { offset: 0xE636, size: 0x8, addend: 0x0, symName: __ZNSt3__113__max_elementB8ne180100IRNS_6__lessIvvEEPKdEET0_S6_S6_T_, symObjAddr: 0x6FB8, symBinAddr: 0x10000935C, symSize: 0x9C }
  - { offset: 0xE722, size: 0x8, addend: 0x0, symName: __ZNSt3__13minB8ne180100IiNS_6__lessIvvEEEERKT_S5_S5_T0_, symObjAddr: 0x7110, symBinAddr: 0x1000094B4, symSize: 0x1E0 }
  - { offset: 0xE782, size: 0x8, addend: 0x0, symName: __ZNSt3__116__pad_and_outputB8ne180100IcNS_11char_traitsIcEEEENS_19ostreambuf_iteratorIT_T0_EES6_PKS4_S8_S8_RNS_8ios_baseES4_, symObjAddr: 0x7CFC, symBinAddr: 0x10000A060, symSize: 0x7CC }
  - { offset: 0xE85F, size: 0x8, addend: 0x0, symName: __ZNSt3__112__to_addressB8ne180100IcEEPT_S2_, symObjAddr: 0x8D04, symBinAddr: 0x10000AF60, symSize: 0x14 }
  - { offset: 0xE894, size: 0x8, addend: 0x0, symName: __ZNSt3__19use_facetB8ne180100INS_5ctypeIcEEEERKT_RKNS_6localeE, symObjAddr: 0x93A8, symBinAddr: 0x10000B604, symSize: 0x2C }
  - { offset: 0x10F7F, size: 0x8, addend: 0x0, symName: __Z11acceleratorRKNSt3__15arrayINS0_INS0_IdLm1EEELm64EEELm500EEERKNS0_INS0_IdLm10EEELm500EEERNS0_INS0_IdLm64EEELm64EEERNS0_ISA_Lm8EEERNS0_INS0_IdLm8EEELm8EEERNS0_ISF_Lm10EEERSA_RSF_SL_RS6_, symObjAddr: 0x0, symBinAddr: 0x100002464, symSize: 0xFA8 }
  - { offset: 0x111D7, size: 0x8, addend: 0x0, symName: __ZNSt3__113basic_ostreamIcNS_11char_traitsIcEEElsB8ne180100EPFRS3_S4_E, symObjAddr: 0xFF0, symBinAddr: 0x100003454, symSize: 0x2C }
  - { offset: 0x113D2, size: 0x8, addend: 0x0, symName: __ZNKSt3__15arrayINS0_INS0_IdLm1EEELm64EEELm500EE4sizeB8ne180100Ev, symObjAddr: 0x11B0, symBinAddr: 0x100003554, symSize: 0x14 }
  - { offset: 0x113F6, size: 0x8, addend: 0x0, symName: __ZNKSt3__15arrayINS0_INS0_IdLm1EEELm64EEELm500EEixB8ne180100Em, symObjAddr: 0x11C4, symBinAddr: 0x100003568, symSize: 0x20 }
  - { offset: 0x11428, size: 0x8, addend: 0x0, symName: __ZNKSt3__15arrayINS0_IdLm64EEELm64EE4sizeB8ne180100Ev, symObjAddr: 0x11E4, symBinAddr: 0x100003588, symSize: 0x14 }
  - { offset: 0x1144C, size: 0x8, addend: 0x0, symName: __ZNKSt3__15arrayIdLm64EE4sizeB8ne180100Ev, symObjAddr: 0x11F8, symBinAddr: 0x10000359C, symSize: 0x14 }
  - { offset: 0x11470, size: 0x8, addend: 0x0, symName: __ZNKSt3__15arrayINS0_IdLm1EEELm64EE4sizeB8ne180100Ev, symObjAddr: 0x120C, symBinAddr: 0x1000035B0, symSize: 0x14 }
  - { offset: 0x11494, size: 0x8, addend: 0x0, symName: __Z18forwardPropagationILi64ELi64EENSt3__15arrayINS1_IdLm1EEEXT0_EEERNS1_IS2_XT_EEERNS1_INS1_IdXT_EEEXT0_EEERNS1_IdXT0_EEEi, symObjAddr: 0x1220, symBinAddr: 0x1000035C4, symSize: 0x9CC }
  - { offset: 0x115F2, size: 0x8, addend: 0x0, symName: __Z18forwardPropagationILi64ELi8EENSt3__15arrayINS1_IdLm1EEEXT0_EEERNS1_IS2_XT_EEERNS1_INS1_IdXT_EEEXT0_EEERNS1_IdXT0_EEEi, symObjAddr: 0x1BEC, symBinAddr: 0x100003F90, symSize: 0x8F8 }
  - { offset: 0x1174F, size: 0x8, addend: 0x0, symName: __Z18forwardPropagationILi8ELi8EENSt3__15arrayINS1_IdLm1EEEXT0_EEERNS1_IS2_XT_EEERNS1_INS1_IdXT_EEEXT0_EEERNS1_IdXT0_EEEi, symObjAddr: 0x24E4, symBinAddr: 0x100004888, symSize: 0x8F8 }
  - { offset: 0x118AB, size: 0x8, addend: 0x0, symName: __Z18forwardPropagationILi8ELi10EENSt3__15arrayINS1_IdLm1EEEXT0_EEERNS1_IS2_XT_EEERNS1_INS1_IdXT_EEEXT0_EEERNS1_IdXT0_EEEi, symObjAddr: 0x2DDC, symBinAddr: 0x100005180, symSize: 0x9D0 }
  - { offset: 0x11A08, size: 0x8, addend: 0x0, symName: __ZNSt3__15arrayINS0_IdLm1EEELm10EE5beginB8ne180100Ev, symObjAddr: 0x37D8, symBinAddr: 0x100005B7C, symSize: 0x24 }
  - { offset: 0x11A2D, size: 0x8, addend: 0x0, symName: __ZNSt3__15arrayINS0_IdLm1EEELm10EE3endB8ne180100Ev, symObjAddr: 0x39B8, symBinAddr: 0x100005D5C, symSize: 0x28 }
  - { offset: 0x11A8B, size: 0x8, addend: 0x0, symName: __ZNKSt3__15arrayINS0_IdLm10EEELm500EEixB8ne180100Em, symObjAddr: 0x3A0C, symBinAddr: 0x100005DB0, symSize: 0x28 }
  - { offset: 0x11ABE, size: 0x8, addend: 0x0, symName: __ZNKSt3__15arrayIdLm10EE5beginB8ne180100Ev, symObjAddr: 0x3A34, symBinAddr: 0x100005DD8, symSize: 0x24 }
  - { offset: 0x11AE3, size: 0x8, addend: 0x0, symName: __ZNKSt3__15arrayIdLm10EE3endB8ne180100Ev, symObjAddr: 0x3A84, symBinAddr: 0x100005E28, symSize: 0x28 }
  - { offset: 0x11B07, size: 0x8, addend: 0x0, symName: __ZNKSt3__15arrayINS0_IdLm1EEELm10EE4sizeB8ne180100Ev, symObjAddr: 0x3AAC, symBinAddr: 0x100005E50, symSize: 0x14 }
  - { offset: 0x11B2B, size: 0x8, addend: 0x0, symName: __ZNSt3__15arrayINS0_IdLm1EEELm10EEixB8ne180100Em, symObjAddr: 0x3AC0, symBinAddr: 0x100005E64, symSize: 0x20 }
  - { offset: 0x11B5D, size: 0x8, addend: 0x0, symName: __ZNKSt3__15arrayIdLm1EE4sizeB8ne180100Ev, symObjAddr: 0x3AE0, symBinAddr: 0x100005E84, symSize: 0x14 }
  - { offset: 0x11B81, size: 0x8, addend: 0x0, symName: __ZNSt3__15arrayIdLm1EEixB8ne180100Em, symObjAddr: 0x3AF4, symBinAddr: 0x100005E98, symSize: 0x20 }
  - { offset: 0x11BB3, size: 0x8, addend: 0x0, symName: __ZNKSt3__15arrayIdLm10EEixB8ne180100Em, symObjAddr: 0x3B14, symBinAddr: 0x100005EB8, symSize: 0x20 }
  - { offset: 0x11BE5, size: 0x8, addend: 0x0, symName: __ZNKSt3__15arrayINS0_IdLm8EEELm10EE4sizeB8ne180100Ev, symObjAddr: 0x3B34, symBinAddr: 0x100005ED8, symSize: 0x14 }
  - { offset: 0x11C09, size: 0x8, addend: 0x0, symName: __ZNKSt3__15arrayIdLm8EE4sizeB8ne180100Ev, symObjAddr: 0x3B48, symBinAddr: 0x100005EEC, symSize: 0x14 }
  - { offset: 0x11C2D, size: 0x8, addend: 0x0, symName: __Z8backPropILi8ELi8ELi10EENSt3__15arrayINS1_IdLm1EEEXT0_EEERKNS1_INS1_IdXT0_EEEXT1_EEERKNS1_IS2_XT1_EEERKNS1_IS2_XT_EEERKNS1_INS1_IdXT_EEEXT0_EEERKS4_i, symObjAddr: 0x3B5C, symBinAddr: 0x100005F00, symSize: 0x758 }
  - { offset: 0x11DBC, size: 0x8, addend: 0x0, symName: __Z8backPropILi64ELi8ELi8EENSt3__15arrayINS1_IdLm1EEEXT0_EEERKNS1_INS1_IdXT0_EEEXT1_EEERKNS1_IS2_XT1_EEERKNS1_IS2_XT_EEERKNS1_INS1_IdXT_EEEXT0_EEERKS4_i, symObjAddr: 0x42B4, symBinAddr: 0x100006658, symSize: 0x778 }
  - { offset: 0x11F4C, size: 0x8, addend: 0x0, symName: __Z8backPropILi64ELi64ELi8EENSt3__15arrayINS1_IdLm1EEEXT0_EEERKNS1_INS1_IdXT0_EEEXT1_EEERKNS1_IS2_XT1_EEERKNS1_IS2_XT_EEERKNS1_INS1_IdXT_EEEXT0_EEERKS4_i, symObjAddr: 0x4A2C, symBinAddr: 0x100006DD0, symSize: 0x7E0 }
  - { offset: 0x120DE, size: 0x8, addend: 0x0, symName: __Z16updateWeightBiasILi8ELi10EEvRNSt3__15arrayINS1_IdXT_EEEXT0_EEERNS1_IdXT0_EEERKNS1_INS1_IdLm1EEEXT_EEERKNS1_IS7_XT0_EEEd, symObjAddr: 0x520C, symBinAddr: 0x1000075B0, symSize: 0x670 }
  - { offset: 0x121C1, size: 0x8, addend: 0x0, symName: __Z16updateWeightBiasILi8ELi8EEvRNSt3__15arrayINS1_IdXT_EEEXT0_EEERNS1_IdXT0_EEERKNS1_INS1_IdLm1EEEXT_EEERKNS1_IS7_XT0_EEEd, symObjAddr: 0x587C, symBinAddr: 0x100007C20, symSize: 0x668 }
  - { offset: 0x122A4, size: 0x8, addend: 0x0, symName: __Z16updateWeightBiasILi64ELi8EEvRNSt3__15arrayINS1_IdXT_EEEXT0_EEERNS1_IdXT0_EEERKNS1_INS1_IdLm1EEEXT_EEERKNS1_IS7_XT0_EEEd, symObjAddr: 0x5EE4, symBinAddr: 0x100008288, symSize: 0x664 }
  - { offset: 0x12388, size: 0x8, addend: 0x0, symName: __Z16updateWeightBiasILi64ELi64EEvRNSt3__15arrayINS1_IdXT_EEEXT0_EEERNS1_IdXT0_EEERKNS1_INS1_IdLm1EEEXT_EEERKNS1_IS7_XT0_EEEd, symObjAddr: 0x6548, symBinAddr: 0x1000088EC, symSize: 0x684 }
  - { offset: 0x1246C, size: 0x8, addend: 0x0, symName: __ZNSt3__15arrayINS0_IdLm1EEELm10EE4dataB8ne180100Ev, symObjAddr: 0x6C20, symBinAddr: 0x100008FC4, symSize: 0x14 }
  - { offset: 0x1249F, size: 0x8, addend: 0x0, symName: '__ZZ11acceleratorRKNSt3__15arrayINS0_INS0_IdLm1EEELm64EEELm500EEERKNS0_INS0_IdLm10EEELm500EEERNS0_INS0_IdLm64EEELm64EEERNS0_ISA_Lm8EEERNS0_INS0_IdLm8EEELm8EEERNS0_ISF_Lm10EEERSA_RSF_SL_RS6_ENK3$_0clERKS1_SP_', symObjAddr: 0x6CD0, symBinAddr: 0x100009074, symSize: 0xD0 }
  - { offset: 0x124E3, size: 0x8, addend: 0x0, symName: __ZNKSt3__15arrayIdLm1EEixB8ne180100Em, symObjAddr: 0x6DA0, symBinAddr: 0x100009144, symSize: 0x20 }
  - { offset: 0x12515, size: 0x8, addend: 0x0, symName: __ZNKSt3__15arrayIdLm10EE4dataB8ne180100Ev, symObjAddr: 0x6DE8, symBinAddr: 0x10000918C, symSize: 0x14 }
  - { offset: 0x1254E, size: 0x8, addend: 0x0, symName: __ZNKSt3__16__lessIvvEclB8ne180100IddEEbRKT_RKT0_, symObjAddr: 0x7054, symBinAddr: 0x1000093F8, symSize: 0xBC }
  - { offset: 0x125AB, size: 0x8, addend: 0x0, symName: __ZNKSt3__16__lessIvvEclB8ne180100IiiEEbRKT_RKT0_, symObjAddr: 0x72F0, symBinAddr: 0x100009694, symSize: 0x10C }
  - { offset: 0x1261C, size: 0x8, addend: 0x0, symName: __ZNKSt3__113basic_ostreamIcNS_11char_traitsIcEEE6sentrycvbB8ne180100Ev, symObjAddr: 0x7C74, symBinAddr: 0x100009FD8, symSize: 0x88 }
  - { offset: 0x12640, size: 0x8, addend: 0x0, symName: __ZNSt3__119ostreambuf_iteratorIcNS_11char_traitsIcEEEC1B8ne180100ERNS_13basic_ostreamIcS2_EE, symObjAddr: 0x84C8, symBinAddr: 0x10000A82C, symSize: 0x34 }
  - { offset: 0x12677, size: 0x8, addend: 0x0, symName: __ZNKSt3__18ios_base5flagsB8ne180100Ev, symObjAddr: 0x84FC, symBinAddr: 0x10000A860, symSize: 0x8C }
  - { offset: 0x1269E, size: 0x8, addend: 0x0, symName: __ZNKSt3__19basic_iosIcNS_11char_traitsIcEEE4fillB8ne180100Ev, symObjAddr: 0x8588, symBinAddr: 0x10000A8EC, symSize: 0x198 }
  - { offset: 0x126C5, size: 0x8, addend: 0x0, symName: __ZNKSt3__119ostreambuf_iteratorIcNS_11char_traitsIcEEE6failedB8ne180100Ev, symObjAddr: 0x8720, symBinAddr: 0x10000AA84, symSize: 0x6C }
  - { offset: 0x126EA, size: 0x8, addend: 0x0, symName: __ZNSt3__19basic_iosIcNS_11char_traitsIcEEE8setstateB8ne180100Ej, symObjAddr: 0x878C, symBinAddr: 0x10000AAF0, symSize: 0x2C }
  - { offset: 0x1271E, size: 0x8, addend: 0x0, symName: __ZNKSt3__18ios_base5widthB8ne180100Ev, symObjAddr: 0x87C8, symBinAddr: 0x10000AB1C, symSize: 0x64 }
  - { offset: 0x12745, size: 0x8, addend: 0x0, symName: __ZNSt3__115basic_streambufIcNS_11char_traitsIcEEE5sputnB8ne180100EPKcl, symObjAddr: 0x882C, symBinAddr: 0x10000AB80, symSize: 0xC8 }
  - { offset: 0x12785, size: 0x8, addend: 0x0, symName: __ZNSt3__112basic_stringIcNS_11char_traitsIcEENS_9allocatorIcEEEC1B8ne180100Emc, symObjAddr: 0x88F4, symBinAddr: 0x10000AC48, symSize: 0x3C }
  - { offset: 0x127CC, size: 0x8, addend: 0x0, symName: __ZNSt3__112basic_stringIcNS_11char_traitsIcEENS_9allocatorIcEEE4dataB8ne180100Ev, symObjAddr: 0x8930, symBinAddr: 0x10000AC84, symSize: 0x28 }
  - { offset: 0x127F1, size: 0x8, addend: 0x0, symName: __ZNSt3__18ios_base5widthB8ne180100El, symObjAddr: 0x8958, symBinAddr: 0x10000ACAC, symSize: 0xB8 }
  - { offset: 0x12835, size: 0x8, addend: 0x0, symName: __ZNSt3__112basic_stringIcNS_11char_traitsIcEENS_9allocatorIcEEEC2B8ne180100Emc, symObjAddr: 0x8A10, symBinAddr: 0x10000AD64, symSize: 0x1FC }
  - { offset: 0x1287F, size: 0x8, addend: 0x0, symName: __ZNSt3__112basic_stringIcNS_11char_traitsIcEENS_9allocatorIcEEE13__get_pointerB8ne180100Ev, symObjAddr: 0x8D18, symBinAddr: 0x10000AF74, symSize: 0x54 }
  - { offset: 0x128A4, size: 0x8, addend: 0x0, symName: __ZNKSt3__112basic_stringIcNS_11char_traitsIcEENS_9allocatorIcEEE9__is_longB8ne180100Ev, symObjAddr: 0x8D6C, symBinAddr: 0x10000AFC8, symSize: 0xA4 }
  - { offset: 0x128C9, size: 0x8, addend: 0x0, symName: __ZNSt3__112basic_stringIcNS_11char_traitsIcEENS_9allocatorIcEEE18__get_long_pointerB8ne180100Ev, symObjAddr: 0x8E10, symBinAddr: 0x10000B06C, symSize: 0x6C }
  - { offset: 0x128EE, size: 0x8, addend: 0x0, symName: __ZNSt3__112basic_stringIcNS_11char_traitsIcEENS_9allocatorIcEEE19__get_short_pointerB8ne180100Ev, symObjAddr: 0x8E7C, symBinAddr: 0x10000B0D8, symSize: 0x28 }
  - { offset: 0x12913, size: 0x8, addend: 0x0, symName: __ZNKSt3__117__compressed_pairINS_12basic_stringIcNS_11char_traitsIcEENS_9allocatorIcEEE5__repES5_E5firstB8ne180100Ev, symObjAddr: 0x8EA4, symBinAddr: 0x10000B100, symSize: 0x24 }
  - { offset: 0x12937, size: 0x8, addend: 0x0, symName: __ZNKSt3__122__compressed_pair_elemINS_12basic_stringIcNS_11char_traitsIcEENS_9allocatorIcEEE5__repELi0ELb0EE5__getB8ne180100Ev, symObjAddr: 0x8EC8, symBinAddr: 0x10000B124, symSize: 0x14 }
  - { offset: 0x1295C, size: 0x8, addend: 0x0, symName: __ZNSt3__117__compressed_pairINS_12basic_stringIcNS_11char_traitsIcEENS_9allocatorIcEEE5__repES5_E5firstB8ne180100Ev, symObjAddr: 0x8EDC, symBinAddr: 0x10000B138, symSize: 0x24 }
  - { offset: 0x12980, size: 0x8, addend: 0x0, symName: __ZNSt3__122__compressed_pair_elemINS_12basic_stringIcNS_11char_traitsIcEENS_9allocatorIcEEE5__repELi0ELb0EE5__getB8ne180100Ev, symObjAddr: 0x8F00, symBinAddr: 0x10000B15C, symSize: 0x14 }
  - { offset: 0x129A5, size: 0x8, addend: 0x0, symName: __ZNSt3__114pointer_traitsIPcE10pointer_toB8ne180100ERc, symObjAddr: 0x8F14, symBinAddr: 0x10000B170, symSize: 0x14 }
  - { offset: 0x129C7, size: 0x8, addend: 0x0, symName: __ZNSt3__119ostreambuf_iteratorIcNS_11char_traitsIcEEEC2B8ne180100ERNS_13basic_ostreamIcS2_EE, symObjAddr: 0x8F28, symBinAddr: 0x10000B184, symSize: 0x10C }
  - { offset: 0x129FE, size: 0x8, addend: 0x0, symName: __ZNKSt3__19basic_iosIcNS_11char_traitsIcEEE5rdbufB8ne180100Ev, symObjAddr: 0x9034, symBinAddr: 0x10000B290, symSize: 0x24 }
  - { offset: 0x12A25, size: 0x8, addend: 0x0, symName: __ZNKSt3__18ios_base5rdbufB8ne180100Ev, symObjAddr: 0x9058, symBinAddr: 0x10000B2B4, symSize: 0x64 }
  - { offset: 0x12A4A, size: 0x8, addend: 0x0, symName: __ZNSt3__111char_traitsIcE11eq_int_typeB8ne180100Eii, symObjAddr: 0x90BC, symBinAddr: 0x10000B318, symSize: 0x28 }
  - { offset: 0x12A7D, size: 0x8, addend: 0x0, symName: __ZNSt3__111char_traitsIcE3eofB8ne180100Ev, symObjAddr: 0x90E4, symBinAddr: 0x10000B340, symSize: 0x8 }
  - { offset: 0x12A91, size: 0x8, addend: 0x0, symName: __ZNKSt3__19basic_iosIcNS_11char_traitsIcEEE5widenB8ne180100Ec, symObjAddr: 0x90EC, symBinAddr: 0x10000B348, symSize: 0x2BC }
  - { offset: 0x12B00, size: 0x8, addend: 0x0, symName: __ZNKSt3__15ctypeIcE5widenB8ne180100Ec, symObjAddr: 0x93D4, symBinAddr: 0x10000B630, symSize: 0xBC }
  - { offset: 0x12B34, size: 0x8, addend: 0x0, symName: __ZNSt3__18ios_base8setstateB8ne180100Ej, symObjAddr: 0x9490, symBinAddr: 0x10000B6EC, symSize: 0x9C }
  - { offset: 0x12B69, size: 0x8, addend: 0x0, symName: __Z6matmulILm64ELm64ELm1EENSt3__15arrayINS1_IdXT1_EEEXT_EEERKNS1_INS1_IdXT0_EEEXT_EEERKNS1_IS2_XT0_EEE, symObjAddr: 0x9550, symBinAddr: 0x10000B788, symSize: 0x2FC }
  - { offset: 0x12C25, size: 0x8, addend: 0x0, symName: __ZNSt3__15arrayINS0_IdLm1EEELm64EEixB8ne180100Em, symObjAddr: 0x984C, symBinAddr: 0x10000BA84, symSize: 0x20 }
  - { offset: 0x12C57, size: 0x8, addend: 0x0, symName: __Z9transposeILm64ELm1EENSt3__15arrayINS1_IdXT_EEEXT0_EEERKNS1_INS1_IdXT0_EEEXT_EEE, symObjAddr: 0x986C, symBinAddr: 0x10000BAA4, symSize: 0x148 }
  - { offset: 0x12D18, size: 0x8, addend: 0x0, symName: __ZNSt3__15arrayINS0_IdLm64EEELm1EEixB8ne180100Em, symObjAddr: 0x99B4, symBinAddr: 0x10000BBEC, symSize: 0x20 }
  - { offset: 0x12D4A, size: 0x8, addend: 0x0, symName: __ZNSt16invalid_argumentC1B8ne180100EPKc, symObjAddr: 0x99D4, symBinAddr: 0x10000BC0C, symSize: 0x34 }
  - { offset: 0x12D80, size: 0x8, addend: 0x0, symName: __ZNKSt3__15arrayINS0_IdLm64EEELm64EEixB8ne180100Em, symObjAddr: 0x9A08, symBinAddr: 0x10000BC40, symSize: 0x20 }
  - { offset: 0x12DB2, size: 0x8, addend: 0x0, symName: __ZNKSt3__15arrayIdLm64EEixB8ne180100Em, symObjAddr: 0x9A28, symBinAddr: 0x10000BC60, symSize: 0x20 }
  - { offset: 0x12DE4, size: 0x8, addend: 0x0, symName: __ZNKSt3__15arrayINS0_IdLm1EEELm64EEixB8ne180100Em, symObjAddr: 0x9A48, symBinAddr: 0x10000BC80, symSize: 0x20 }
  - { offset: 0x12E16, size: 0x8, addend: 0x0, symName: __ZNSt16invalid_argumentC2B8ne180100EPKc, symObjAddr: 0x9A68, symBinAddr: 0x10000BCA0, symSize: 0x84 }
  - { offset: 0x12E4C, size: 0x8, addend: 0x0, symName: __Z6matmulILm8ELm64ELm1EENSt3__15arrayINS1_IdXT1_EEEXT_EEERKNS1_INS1_IdXT0_EEEXT_EEERKNS1_IS2_XT0_EEE, symObjAddr: 0x9AEC, symBinAddr: 0x10000BD24, symSize: 0x300 }
  - { offset: 0x12F41, size: 0x8, addend: 0x0, symName: __ZNKSt3__15arrayINS0_IdLm1EEELm8EE4sizeB8ne180100Ev, symObjAddr: 0x9DEC, symBinAddr: 0x10000C024, symSize: 0x14 }
  - { offset: 0x12F65, size: 0x8, addend: 0x0, symName: __ZNSt3__15arrayINS0_IdLm1EEELm8EEixB8ne180100Em, symObjAddr: 0x9E00, symBinAddr: 0x10000C038, symSize: 0x20 }
  - { offset: 0x12F97, size: 0x8, addend: 0x0, symName: __Z9transposeILm8ELm1EENSt3__15arrayINS1_IdXT_EEEXT0_EEERKNS1_INS1_IdXT0_EEEXT_EEE, symObjAddr: 0x9E20, symBinAddr: 0x10000C058, symSize: 0x148 }
  - { offset: 0x13058, size: 0x8, addend: 0x0, symName: __ZNSt3__15arrayINS0_IdLm8EEELm1EEixB8ne180100Em, symObjAddr: 0x9F68, symBinAddr: 0x10000C1A0, symSize: 0x20 }
  - { offset: 0x1308A, size: 0x8, addend: 0x0, symName: __ZNKSt3__15arrayINS0_IdLm64EEELm8EEixB8ne180100Em, symObjAddr: 0x9F88, symBinAddr: 0x10000C1C0, symSize: 0x20 }
  - { offset: 0x130BC, size: 0x8, addend: 0x0, symName: __ZNKSt3__15arrayINS0_IdLm1EEELm8EEixB8ne180100Em, symObjAddr: 0x9FA8, symBinAddr: 0x10000C1E0, symSize: 0x20 }
  - { offset: 0x130EE, size: 0x8, addend: 0x0, symName: __Z6matmulILm8ELm8ELm1EENSt3__15arrayINS1_IdXT1_EEEXT_EEERKNS1_INS1_IdXT0_EEEXT_EEERKNS1_IS2_XT0_EEE, symObjAddr: 0x9FC8, symBinAddr: 0x10000C200, symSize: 0x2FC }
  - { offset: 0x131AA, size: 0x8, addend: 0x0, symName: __ZNKSt3__15arrayINS0_IdLm8EEELm8EEixB8ne180100Em, symObjAddr: 0xA2C4, symBinAddr: 0x10000C4FC, symSize: 0x20 }
  - { offset: 0x131DC, size: 0x8, addend: 0x0, symName: __ZNKSt3__15arrayIdLm8EEixB8ne180100Em, symObjAddr: 0xA2E4, symBinAddr: 0x10000C51C, symSize: 0x20 }
  - { offset: 0x1320E, size: 0x8, addend: 0x0, symName: __Z6matmulILm10ELm8ELm1EENSt3__15arrayINS1_IdXT1_EEEXT_EEERKNS1_INS1_IdXT0_EEEXT_EEERKNS1_IS2_XT0_EEE, symObjAddr: 0xA304, symBinAddr: 0x10000C53C, symSize: 0x300 }
  - { offset: 0x132CA, size: 0x8, addend: 0x0, symName: __ZNSt3__15arrayIdLm10EEixB8ne180100Em, symObjAddr: 0xA604, symBinAddr: 0x10000C83C, symSize: 0x20 }
  - { offset: 0x132FC, size: 0x8, addend: 0x0, symName: __Z9transposeILm10ELm1EENSt3__15arrayINS1_IdXT_EEEXT0_EEERKNS1_INS1_IdXT0_EEEXT_EEE, symObjAddr: 0xA624, symBinAddr: 0x10000C85C, symSize: 0x148 }
  - { offset: 0x133BD, size: 0x8, addend: 0x0, symName: __ZNSt3__15arrayINS0_IdLm10EEELm1EEixB8ne180100Em, symObjAddr: 0xA76C, symBinAddr: 0x10000C9A4, symSize: 0x28 }
  - { offset: 0x133EF, size: 0x8, addend: 0x0, symName: __ZNKSt3__15arrayINS0_IdLm8EEELm10EEixB8ne180100Em, symObjAddr: 0xA794, symBinAddr: 0x10000C9CC, symSize: 0x20 }
  - { offset: 0x13421, size: 0x8, addend: 0x0, symName: __ZNKSt3__15arrayINS0_IdLm1EEELm10EEixB8ne180100Em, symObjAddr: 0xA7B4, symBinAddr: 0x10000C9EC, symSize: 0x20 }
  - { offset: 0x13453, size: 0x8, addend: 0x0, symName: __Z9transposeILm10ELm8EENSt3__15arrayINS1_IdXT_EEEXT0_EEERKNS1_INS1_IdXT0_EEEXT_EEE, symObjAddr: 0xA7D4, symBinAddr: 0x10000CA0C, symSize: 0x148 }
  - { offset: 0x134DB, size: 0x8, addend: 0x0, symName: __Z6matmulILm8ELm10ELm1EENSt3__15arrayINS1_IdXT1_EEEXT_EEERKNS1_INS1_IdXT0_EEEXT_EEERKNS1_IS2_XT0_EEE, symObjAddr: 0xA91C, symBinAddr: 0x10000CB54, symSize: 0x300 }
  - { offset: 0x135D0, size: 0x8, addend: 0x0, symName: __ZNSt3__15arrayINS0_IdLm10EEELm8EEixB8ne180100Em, symObjAddr: 0xAC1C, symBinAddr: 0x10000CE54, symSize: 0x28 }
  - { offset: 0x13602, size: 0x8, addend: 0x0, symName: __ZNKSt3__15arrayINS0_IdLm10EEELm8EEixB8ne180100Em, symObjAddr: 0xAC44, symBinAddr: 0x10000CE7C, symSize: 0x28 }
  - { offset: 0x13634, size: 0x8, addend: 0x0, symName: __Z9transposeILm8ELm8EENSt3__15arrayINS1_IdXT_EEEXT0_EEERKNS1_INS1_IdXT0_EEEXT_EEE, symObjAddr: 0xAC6C, symBinAddr: 0x10000CEA4, symSize: 0x148 }
  - { offset: 0x136BC, size: 0x8, addend: 0x0, symName: __Z9transposeILm8ELm64EENSt3__15arrayINS1_IdXT_EEEXT0_EEERKNS1_INS1_IdXT0_EEEXT_EEE, symObjAddr: 0xADB4, symBinAddr: 0x10000CFEC, symSize: 0x148 }
  - { offset: 0x13744, size: 0x8, addend: 0x0, symName: __Z6matmulILm64ELm8ELm1EENSt3__15arrayINS1_IdXT1_EEEXT_EEERKNS1_INS1_IdXT0_EEEXT_EEERKNS1_IS2_XT0_EEE, symObjAddr: 0xAEFC, symBinAddr: 0x10000D134, symSize: 0x300 }
  - { offset: 0x13839, size: 0x8, addend: 0x0, symName: __ZNSt3__15arrayINS0_IdLm8EEELm64EEixB8ne180100Em, symObjAddr: 0xB1FC, symBinAddr: 0x10000D434, symSize: 0x20 }
  - { offset: 0x1386B, size: 0x8, addend: 0x0, symName: __ZNKSt3__15arrayINS0_IdLm8EEELm64EEixB8ne180100Em, symObjAddr: 0xB21C, symBinAddr: 0x10000D454, symSize: 0x20 }
  - { offset: 0x1389D, size: 0x8, addend: 0x0, symName: __Z6matmulILm10ELm1ELm8EENSt3__15arrayINS1_IdXT1_EEEXT_EEERKNS1_INS1_IdXT0_EEEXT_EEERKNS1_IS2_XT0_EEE, symObjAddr: 0xB23C, symBinAddr: 0x10000D474, symSize: 0x300 }
  - { offset: 0x13959, size: 0x8, addend: 0x0, symName: __ZNKSt3__15arrayINS0_IdLm8EEELm1EE4sizeB8ne180100Ev, symObjAddr: 0xB53C, symBinAddr: 0x10000D774, symSize: 0x14 }
  - { offset: 0x1397D, size: 0x8, addend: 0x0, symName: __ZNKSt3__15arrayINS0_IdLm8EEELm1EEixB8ne180100Em, symObjAddr: 0xB550, symBinAddr: 0x10000D788, symSize: 0x20 }
  - { offset: 0x139AF, size: 0x8, addend: 0x0, symName: __Z6matmulILm8ELm1ELm8EENSt3__15arrayINS1_IdXT1_EEEXT_EEERKNS1_INS1_IdXT0_EEEXT_EEERKNS1_IS2_XT0_EEE, symObjAddr: 0xB570, symBinAddr: 0x10000D7A8, symSize: 0x304 }
  - { offset: 0x13A6B, size: 0x8, addend: 0x0, symName: __ZNKSt3__15arrayINS0_IdLm8EEELm8EE4sizeB8ne180100Ev, symObjAddr: 0xB874, symBinAddr: 0x10000DAAC, symSize: 0x14 }
  - { offset: 0x13A8F, size: 0x8, addend: 0x0, symName: __Z6matmulILm8ELm1ELm64EENSt3__15arrayINS1_IdXT1_EEEXT_EEERKNS1_INS1_IdXT0_EEEXT_EEERKNS1_IS2_XT0_EEE, symObjAddr: 0xB888, symBinAddr: 0x10000DAC0, symSize: 0x300 }
  - { offset: 0x13B4B, size: 0x8, addend: 0x0, symName: __ZNKSt3__15arrayINS0_IdLm64EEELm8EE4sizeB8ne180100Ev, symObjAddr: 0xBB88, symBinAddr: 0x10000DDC0, symSize: 0x14 }
  - { offset: 0x13B6F, size: 0x8, addend: 0x0, symName: __ZNKSt3__15arrayINS0_IdLm64EEELm1EE4sizeB8ne180100Ev, symObjAddr: 0xBB9C, symBinAddr: 0x10000DDD4, symSize: 0x14 }
  - { offset: 0x13B93, size: 0x8, addend: 0x0, symName: __ZNKSt3__15arrayINS0_IdLm64EEELm1EEixB8ne180100Em, symObjAddr: 0xBBB0, symBinAddr: 0x10000DDE8, symSize: 0x20 }
  - { offset: 0x13BC5, size: 0x8, addend: 0x0, symName: __Z6matmulILm64ELm1ELm64EENSt3__15arrayINS1_IdXT1_EEEXT_EEERKNS1_INS1_IdXT0_EEEXT_EEERKNS1_IS2_XT0_EEE, symObjAddr: 0xBBD0, symBinAddr: 0x10000DE08, symSize: 0x304 }
  - { offset: 0x15B6B, size: 0x8, addend: 0x0, symName: _.str, symObjAddr: 0x4B20, symBinAddr: 0x1000177E0, symSize: 0x0 }
  - { offset: 0x15B9B, size: 0x8, addend: 0x0, symName: _.str.1, symObjAddr: 0x4B60, symBinAddr: 0x100017820, symSize: 0x0 }
  - { offset: 0x15BB8, size: 0x8, addend: 0x0, symName: _.str.2, symObjAddr: 0x4BA0, symBinAddr: 0x100017860, symSize: 0x0 }
  - { offset: 0x15BD5, size: 0x8, addend: 0x0, symName: _.str.3, symObjAddr: 0x4BC0, symBinAddr: 0x100017880, symSize: 0x0 }
  - { offset: 0x15BF2, size: 0x8, addend: 0x0, symName: _.str.4, symObjAddr: 0x4BE0, symBinAddr: 0x1000178A0, symSize: 0x0 }
  - { offset: 0x16736, size: 0x8, addend: 0x0, symName: __ZNSt3__111max_elementB8ne180100IPNS_5arrayIdLm1EEEZ7softmaxILi64EENS1_IS2_XT_EEERS5_EUlRKS2_S8_E_EET_SA_SA_T0_, symObjAddr: 0x113C, symBinAddr: 0x10000F230, symSize: 0x1BC }
  - { offset: 0x1679B, size: 0x8, addend: 0x0, symName: __ZNSt3__16__math5isinfB8ne180100EUa9enable_ifIXLb1EEEd, symObjAddr: 0x1358, symBinAddr: 0x10000F438, symSize: 0x28 }
  - { offset: 0x167C7, size: 0x8, addend: 0x0, symName: __ZNSt3__16__math5isnanB8ne180100EUa9enable_ifIXLb1EEEd, symObjAddr: 0x14E8, symBinAddr: 0x10000F460, symSize: 0x1C }
  - { offset: 0x16838, size: 0x8, addend: 0x0, symName: __ZNSt3__111max_elementB8ne180100IPNS_5arrayIdLm1EEEZ7softmaxILi8EENS1_IS2_XT_EEERS5_EUlRKS2_S8_E_EET_SA_SA_T0_, symObjAddr: 0x1A68, symBinAddr: 0x10000F9E0, symSize: 0x1BC }
  - { offset: 0x16898, size: 0x8, addend: 0x0, symName: __ZNSt3__111max_elementB8ne180100IPNS_5arrayIdLm1EEEZ7softmaxILi10EENS1_IS2_XT_EEERS5_EUlRKS2_S8_E_EET_SA_SA_T0_, symObjAddr: 0x21E8, symBinAddr: 0x10001014C, symSize: 0x1BC }
  - { offset: 0x168F8, size: 0x8, addend: 0x0, symName: __ZNSt3__113__max_elementB8ne180100IRZ7softmaxILi64EENS_5arrayINS2_IdLm1EEEXT_EEERS4_EUlRKS3_S7_E_PS3_EET0_SB_SB_T_, symObjAddr: 0x2404, symBinAddr: 0x100010308, symSize: 0x9C }
  - { offset: 0x1696E, size: 0x8, addend: 0x0, symName: __ZNSt3__113__max_elementB8ne180100IRZ7softmaxILi8EENS_5arrayINS2_IdLm1EEEXT_EEERS4_EUlRKS3_S7_E_PS3_EET0_SB_SB_T_, symObjAddr: 0x2584, symBinAddr: 0x100010488, symSize: 0x9C }
  - { offset: 0x169E4, size: 0x8, addend: 0x0, symName: __ZNSt3__113__max_elementB8ne180100IRZ7softmaxILi10EENS_5arrayINS2_IdLm1EEEXT_EEERS4_EUlRKS3_S7_E_PS3_EET0_SB_SB_T_, symObjAddr: 0x2704, symBinAddr: 0x100010608, symSize: 0x9C }
  - { offset: 0x176D1, size: 0x8, addend: 0x0, symName: __Z4reluILi64EENSt3__15arrayINS1_IdLm1EEEXT_EEERS3_, symObjAddr: 0x0, symBinAddr: 0x10000E174, symSize: 0x18C }
  - { offset: 0x17734, size: 0x8, addend: 0x0, symName: __Z4reluILi8EENSt3__15arrayINS1_IdLm1EEEXT_EEERS3_, symObjAddr: 0x1CC, symBinAddr: 0x10000E300, symSize: 0x18C }
  - { offset: 0x17796, size: 0x8, addend: 0x0, symName: __Z4reluILi10EENSt3__15arrayINS1_IdLm1EEEXT_EEERS3_, symObjAddr: 0x378, symBinAddr: 0x10000E48C, symSize: 0x18C }
  - { offset: 0x177F8, size: 0x8, addend: 0x0, symName: __Z15derivative_reluILi64EENSt3__15arrayINS1_IdLm1EEEXT_EEERS3_, symObjAddr: 0x524, symBinAddr: 0x10000E618, symSize: 0x120 }
  - { offset: 0x1785A, size: 0x8, addend: 0x0, symName: __Z15derivative_reluILi8EENSt3__15arrayINS1_IdLm1EEEXT_EEERS3_, symObjAddr: 0x644, symBinAddr: 0x10000E738, symSize: 0x120 }
  - { offset: 0x178BB, size: 0x8, addend: 0x0, symName: __Z15derivative_reluILi10EENSt3__15arrayINS1_IdLm1EEEXT_EEERS3_, symObjAddr: 0x764, symBinAddr: 0x10000E858, symSize: 0x120 }
  - { offset: 0x1791C, size: 0x8, addend: 0x0, symName: __Z7sigmoidILi64EENSt3__15arrayINS1_IdLm1EEEXT_EEERS3_, symObjAddr: 0x884, symBinAddr: 0x10000E978, symSize: 0x11C }
  - { offset: 0x1797E, size: 0x8, addend: 0x0, symName: __Z7sigmoidILi8EENSt3__15arrayINS1_IdLm1EEEXT_EEERS3_, symObjAddr: 0x9A0, symBinAddr: 0x10000EA94, symSize: 0x11C }
  - { offset: 0x179DF, size: 0x8, addend: 0x0, symName: __Z7sigmoidILi10EENSt3__15arrayINS1_IdLm1EEEXT_EEERS3_, symObjAddr: 0xABC, symBinAddr: 0x10000EBB0, symSize: 0x11C }
  - { offset: 0x17A40, size: 0x8, addend: 0x0, symName: __Z7softmaxILi64EENSt3__15arrayINS1_IdLm1EEEXT_EEERS3_, symObjAddr: 0xBD8, symBinAddr: 0x10000ECCC, symSize: 0x564 }
  - { offset: 0x17BAA, size: 0x8, addend: 0x0, symName: __ZNSt3__15arrayINS0_IdLm1EEELm64EE5beginB8ne180100Ev, symObjAddr: 0x12F8, symBinAddr: 0x10000F3EC, symSize: 0x24 }
  - { offset: 0x17BCF, size: 0x8, addend: 0x0, symName: __ZNSt3__15arrayINS0_IdLm1EEELm64EE3endB8ne180100Ev, symObjAddr: 0x131C, symBinAddr: 0x10000F410, symSize: 0x28 }
  - { offset: 0x17BF3, size: 0x8, addend: 0x0, symName: __Z7softmaxILi8EENSt3__15arrayINS1_IdLm1EEEXT_EEERS3_, symObjAddr: 0x1504, symBinAddr: 0x10000F47C, symSize: 0x564 }
  - { offset: 0x17D5C, size: 0x8, addend: 0x0, symName: __ZNSt3__15arrayINS0_IdLm1EEELm8EE5beginB8ne180100Ev, symObjAddr: 0x1C24, symBinAddr: 0x10000FB9C, symSize: 0x24 }
  - { offset: 0x17D81, size: 0x8, addend: 0x0, symName: __ZNSt3__15arrayINS0_IdLm1EEELm8EE3endB8ne180100Ev, symObjAddr: 0x1C48, symBinAddr: 0x10000FBC0, symSize: 0x28 }
  - { offset: 0x17DA5, size: 0x8, addend: 0x0, symName: __Z7softmaxILi10EENSt3__15arrayINS1_IdLm1EEEXT_EEERS3_, symObjAddr: 0x1C84, symBinAddr: 0x10000FBE8, symSize: 0x564 }
  - { offset: 0x17F1C, size: 0x8, addend: 0x0, symName: __ZZ7softmaxILi64EENSt3__15arrayINS1_IdLm1EEEXT_EEERS3_ENKUlRKS2_S6_E_clES6_S6_, symObjAddr: 0x24A0, symBinAddr: 0x1000103A4, symSize: 0xD0 }
  - { offset: 0x17F60, size: 0x8, addend: 0x0, symName: __ZNSt3__15arrayINS0_IdLm1EEELm64EE4dataB8ne180100Ev, symObjAddr: 0x2570, symBinAddr: 0x100010474, symSize: 0x14 }
  - { offset: 0x17F8E, size: 0x8, addend: 0x0, symName: __ZZ7softmaxILi8EENSt3__15arrayINS1_IdLm1EEEXT_EEERS3_ENKUlRKS2_S6_E_clES6_S6_, symObjAddr: 0x2620, symBinAddr: 0x100010524, symSize: 0xD0 }
  - { offset: 0x17FD2, size: 0x8, addend: 0x0, symName: __ZNSt3__15arrayINS0_IdLm1EEELm8EE4dataB8ne180100Ev, symObjAddr: 0x26F0, symBinAddr: 0x1000105F4, symSize: 0x14 }
  - { offset: 0x18000, size: 0x8, addend: 0x0, symName: __ZZ7softmaxILi10EENSt3__15arrayINS1_IdLm1EEEXT_EEERS3_ENKUlRKS2_S6_E_clES6_S6_, symObjAddr: 0x27A0, symBinAddr: 0x1000106A4, symSize: 0xD0 }
  - { offset: 0x19E17, size: 0x8, addend: 0x0, symName: _.str, symObjAddr: 0x81A0, symBinAddr: 0x1000178E0, symSize: 0x0 }
  - { offset: 0x19E47, size: 0x8, addend: 0x0, symName: _.str.1, symObjAddr: 0x81E0, symBinAddr: 0x100017920, symSize: 0x0 }
  - { offset: 0x28584, size: 0x8, addend: 0x0, symName: __ZNSt3__1lsB8ne180100IcNS_11char_traitsIcEENS_9allocatorIcEEEERNS_13basic_ostreamIT_T0_EES9_RKNS_12basic_stringIS6_S7_T1_EE, symObjAddr: 0x1288, symBinAddr: 0x100011A64, symSize: 0x4C }
  - { offset: 0x285DC, size: 0x8, addend: 0x0, symName: __ZNSt3__17getlineB8ne180100IcNS_11char_traitsIcEENS_9allocatorIcEEEERNS_13basic_istreamIT_T0_EES9_RNS_12basic_stringIS6_S7_T1_EE, symObjAddr: 0x141C, symBinAddr: 0x100011AB0, symSize: 0xD8 }
  - { offset: 0x28BA5, size: 0x8, addend: 0x0, symName: __ZNSt3__17getlineB8ne180100IcNS_11char_traitsIcEENS_9allocatorIcEEEERNS_13basic_istreamIT_T0_EES9_RNS_12basic_stringIS6_S7_T1_EES6_, symObjAddr: 0x177C, symBinAddr: 0x100011E10, symSize: 0x748 }
  - { offset: 0x29CB5, size: 0x8, addend: 0x0, symName: __ZNSt3__118generate_canonicalB8ne180100IdLm53ENS_23mersenne_twister_engineIjLm32ELm624ELm397ELm31ELj2567483615ELm11ELj4294967295ELm7ELj2636928640ELm15ELj4022730752ELm18ELj1812433253EEEEET_RT1_, symObjAddr: 0x3834, symBinAddr: 0x100013AC0, symSize: 0x118 }
  - { offset: 0x29D7B, size: 0x8, addend: 0x0, symName: __ZNSt3__112__to_addressB8ne180100IKcEEPT_S3_, symObjAddr: 0x43B8, symBinAddr: 0x100014610, symSize: 0x14 }
  - { offset: 0x2B609, size: 0x8, addend: 0x0, symName: __Z7he_initi, symObjAddr: 0x0, symBinAddr: 0x1000107DC, symSize: 0x3C8 }
  - { offset: 0x2B686, size: 0x8, addend: 0x0, symName: __ZNSt3__113random_deviceC1B8ne180100Ev, symObjAddr: 0x3C8, symBinAddr: 0x100010BA4, symSize: 0x2FC }
  - { offset: 0x2B6AF, size: 0x8, addend: 0x0, symName: __ZNSt3__123mersenne_twister_engineIjLm32ELm624ELm397ELm31ELj2567483615ELm11ELj4294967295ELm7ELj2636928640ELm15ELj4022730752ELm18ELj1812433253EEC1B8ne180100Ej, symObjAddr: 0x6C4, symBinAddr: 0x100010EA0, symSize: 0x34 }
  - { offset: 0x2B708, size: 0x8, addend: 0x0, symName: __ZNSt3__125uniform_real_distributionIdEC1B8ne180100Edd, symObjAddr: 0x6F8, symBinAddr: 0x100010ED4, symSize: 0x3C }
  - { offset: 0x2B752, size: 0x8, addend: 0x0, symName: __ZNSt3__125uniform_real_distributionIdEclB8ne180100INS_23mersenne_twister_engineIjLm32ELm624ELm397ELm31ELj2567483615ELm11ELj4294967295ELm7ELj2636928640ELm15ELj4022730752ELm18ELj1812433253EEEEEdRT_, symObjAddr: 0x734, symBinAddr: 0x100010F10, symSize: 0x30 }
  - { offset: 0x2B78D, size: 0x8, addend: 0x0, symName: __Z8load_csvRKNSt3__112basic_stringIcNS_11char_traitsIcEENS_9allocatorIcEEEE, symObjAddr: 0x764, symBinAddr: 0x100010F40, symSize: 0x818 }
  - { offset: 0x2BAFC, size: 0x8, addend: 0x0, symName: __ZNSt3__114basic_ifstreamIcNS_11char_traitsIcEEEC1ERKNS_12basic_stringIcS2_NS_9allocatorIcEEEEj, symObjAddr: 0xF7C, symBinAddr: 0x100011758, symSize: 0x2B4 }
  - { offset: 0x2BB44, size: 0x8, addend: 0x0, symName: __ZNSt3__112basic_stringIcNS_11char_traitsIcEENS_9allocatorIcEEEC1B8ne180100Ev, symObjAddr: 0x1230, symBinAddr: 0x100011A0C, symSize: 0x2C }
  - { offset: 0x2BB6D, size: 0x8, addend: 0x0, symName: __ZNKSt3__114basic_ifstreamIcNS_11char_traitsIcEEE7is_openEv, symObjAddr: 0x125C, symBinAddr: 0x100011A38, symSize: 0x2C }
  - { offset: 0x2BB94, size: 0x8, addend: 0x0, symName: __ZNKSt3__19basic_iosIcNS_11char_traitsIcEEEcvbB8ne180100Ev, symObjAddr: 0x14F4, symBinAddr: 0x100011B88, symSize: 0x2C }
  - { offset: 0x2BC2B, size: 0x8, addend: 0x0, symName: __ZNSt3__118basic_stringstreamIcNS_11char_traitsIcEENS_9allocatorIcEEEC1B8ne180100ERKNS_12basic_stringIcS2_S4_EEj, symObjAddr: 0x1520, symBinAddr: 0x100011BB4, symSize: 0x25C }
  - { offset: 0x2BD36, size: 0x8, addend: 0x0, symName: __ZNSt3__15arrayINS0_INS0_IdLm1EEELm64EEELm500EEixB8ne180100Em, symObjAddr: 0x1EC4, symBinAddr: 0x100012558, symSize: 0x20 }
  - { offset: 0x2BD6E, size: 0x8, addend: 0x0, symName: __ZNSt3__118basic_stringstreamIcNS_11char_traitsIcEENS_9allocatorIcEEED1Ev, symObjAddr: 0x1F24, symBinAddr: 0x100012578, symSize: 0x40 }
  - { offset: 0x2BD9A, size: 0x8, addend: 0x0, symName: __ZNSt3__114basic_ifstreamIcNS_11char_traitsIcEEE5closeEv, symObjAddr: 0x1F64, symBinAddr: 0x1000125B8, symSize: 0xD4 }
  - { offset: 0x2BDC6, size: 0x8, addend: 0x0, symName: __ZNSt3__114basic_ifstreamIcNS_11char_traitsIcEEED1Ev, symObjAddr: 0x2038, symBinAddr: 0x10001268C, symSize: 0x40 }
  - { offset: 0x2BDF1, size: 0x8, addend: 0x0, symName: __Z11load_labelsRKNSt3__112basic_stringIcNS_11char_traitsIcEENS_9allocatorIcEEEE, symObjAddr: 0x2078, symBinAddr: 0x1000126CC, symSize: 0x5AC }
  - { offset: 0x2BEEA, size: 0x8, addend: 0x0, symName: __ZNSt3__15arrayINS0_IdLm10EEELm500EEixB8ne180100Em, symObjAddr: 0x2624, symBinAddr: 0x100012C78, symSize: 0x28 }
  - { offset: 0x2BF26, size: 0x8, addend: 0x0, symName: __ZNSt3__112basic_stringIcNS_11char_traitsIcEENS_9allocatorIcEEEC2B8ne180100Ev, symObjAddr: 0x2A14, symBinAddr: 0x100012CA0, symSize: 0x244 }
  - { offset: 0x2BF54, size: 0x8, addend: 0x0, symName: __ZNSt3__117__compressed_pairINS_12basic_stringIcNS_11char_traitsIcEENS_9allocatorIcEEE5__repES5_EC1B8ne180100INS_16__value_init_tagENS_18__default_init_tagEEEOT_OT0_, symObjAddr: 0x2C58, symBinAddr: 0x100012EE4, symSize: 0x3C }
  - { offset: 0x2BFAA, size: 0x8, addend: 0x0, symName: __ZNKSt3__112basic_stringIcNS_11char_traitsIcEENS_9allocatorIcEEE14__annotate_newB8ne180100Em, symObjAddr: 0x2C94, symBinAddr: 0x100012F20, symSize: 0x14 }
  - { offset: 0x2BFDD, size: 0x8, addend: 0x0, symName: __ZNSt3__117__compressed_pairINS_12basic_stringIcNS_11char_traitsIcEENS_9allocatorIcEEE5__repES5_EC2B8ne180100INS_16__value_init_tagENS_18__default_init_tagEEEOT_OT0_, symObjAddr: 0x2CA8, symBinAddr: 0x100012F34, symSize: 0x3C }
  - { offset: 0x2C033, size: 0x8, addend: 0x0, symName: __ZNSt3__122__compressed_pair_elemINS_12basic_stringIcNS_11char_traitsIcEENS_9allocatorIcEEE5__repELi0ELb0EEC2B8ne180100ENS_16__value_init_tagE, symObjAddr: 0x2CE4, symBinAddr: 0x100012F70, symSize: 0x34 }
  - { offset: 0x2C066, size: 0x8, addend: 0x0, symName: __ZNSt3__118basic_stringstreamIcNS_11char_traitsIcEENS_9allocatorIcEEED2Ev, symObjAddr: 0x2D18, symBinAddr: 0x100012FA4, symSize: 0x214 }
  - { offset: 0x2C09E, size: 0x8, addend: 0x0, symName: __ZThn16_NSt3__118basic_stringstreamIcNS_11char_traitsIcEENS_9allocatorIcEEED1Ev, symObjAddr: 0x2F2C, symBinAddr: 0x1000131B8, symSize: 0x1C }
  - { offset: 0x2C0B5, size: 0x8, addend: 0x0, symName: __ZTv0_n24_NSt3__118basic_stringstreamIcNS_11char_traitsIcEENS_9allocatorIcEEED1Ev, symObjAddr: 0x2F48, symBinAddr: 0x1000131D4, symSize: 0xB0 }
  - { offset: 0x2C0D1, size: 0x8, addend: 0x0, symName: __ZNSt3__115basic_stringbufIcNS_11char_traitsIcEENS_9allocatorIcEEED1Ev, symObjAddr: 0x2FF8, symBinAddr: 0x100013284, symSize: 0x2C }
  - { offset: 0x2C0FD, size: 0x8, addend: 0x0, symName: __ZNSt3__115basic_stringbufIcNS_11char_traitsIcEENS_9allocatorIcEEED2Ev, symObjAddr: 0x3024, symBinAddr: 0x1000132B0, symSize: 0x80 }
  - { offset: 0x2C129, size: 0x8, addend: 0x0, symName: __ZNSt3__114basic_ifstreamIcNS_11char_traitsIcEEED2Ev, symObjAddr: 0x30A4, symBinAddr: 0x100013330, symSize: 0x198 }
  - { offset: 0x2C161, size: 0x8, addend: 0x0, symName: __ZTv0_n24_NSt3__114basic_ifstreamIcNS_11char_traitsIcEEED1Ev, symObjAddr: 0x323C, symBinAddr: 0x1000134C8, symSize: 0xB0 }
  - { offset: 0x2C177, size: 0x8, addend: 0x0, symName: __ZNSt3__123mersenne_twister_engineIjLm32ELm624ELm397ELm31ELj2567483615ELm11ELj4294967295ELm7ELj2636928640ELm15ELj4022730752ELm18ELj1812433253EEC2B8ne180100Ej, symObjAddr: 0x32EC, symBinAddr: 0x100013578, symSize: 0x34 }
  - { offset: 0x2C1AE, size: 0x8, addend: 0x0, symName: __ZNSt3__123mersenne_twister_engineIjLm32ELm624ELm397ELm31ELj2567483615ELm11ELj4294967295ELm7ELj2636928640ELm15ELj4022730752ELm18ELj1812433253EE4seedEj, symObjAddr: 0x3320, symBinAddr: 0x1000135AC, symSize: 0x298 }
  - { offset: 0x2C200, size: 0x8, addend: 0x0, symName: __ZNSt3__123mersenne_twister_engineIjLm32ELm624ELm397ELm31ELj2567483615ELm11ELj4294967295ELm7ELj2636928640ELm15ELj4022730752ELm18ELj1812433253EE8__rshiftB8ne180100ILm30ELi0EEEjj, symObjAddr: 0x35B8, symBinAddr: 0x100013844, symSize: 0x18 }
  - { offset: 0x2C233, size: 0x8, addend: 0x0, symName: __ZNSt3__125uniform_real_distributionIdEC2B8ne180100Edd, symObjAddr: 0x35D0, symBinAddr: 0x10001385C, symSize: 0x3C }
  - { offset: 0x2C277, size: 0x8, addend: 0x0, symName: __ZNSt3__125uniform_real_distributionIdE10param_typeC1B8ne180100Edd, symObjAddr: 0x360C, symBinAddr: 0x100013898, symSize: 0x3C }
  - { offset: 0x2C2BB, size: 0x8, addend: 0x0, symName: __ZNSt3__125uniform_real_distributionIdE10param_typeC2B8ne180100Edd, symObjAddr: 0x3648, symBinAddr: 0x1000138D4, symSize: 0xBC }
  - { offset: 0x2C300, size: 0x8, addend: 0x0, symName: __ZNSt3__125uniform_real_distributionIdEclINS_23mersenne_twister_engineIjLm32ELm624ELm397ELm31ELj2567483615ELm11ELj4294967295ELm7ELj2636928640ELm15ELj4022730752ELm18ELj1812433253EEEEEdRT_RKNS1_10param_typeE, symObjAddr: 0x3704, symBinAddr: 0x100013990, symSize: 0x6C }
  - { offset: 0x2C34B, size: 0x8, addend: 0x0, symName: __ZNKSt3__125uniform_real_distributionIdE10param_type1bB8ne180100Ev, symObjAddr: 0x3770, symBinAddr: 0x1000139FC, symSize: 0x64 }
  - { offset: 0x2C370, size: 0x8, addend: 0x0, symName: __ZNKSt3__125uniform_real_distributionIdE10param_type1aB8ne180100Ev, symObjAddr: 0x37D4, symBinAddr: 0x100013A60, symSize: 0x60 }
  - { offset: 0x2C395, size: 0x8, addend: 0x0, symName: __ZNSt3__123mersenne_twister_engineIjLm32ELm624ELm397ELm31ELj2567483615ELm11ELj4294967295ELm7ELj2636928640ELm15ELj4022730752ELm18ELj1812433253EE3maxB8ne180100Ev, symObjAddr: 0x394C, symBinAddr: 0x100013BD8, symSize: 0x8 }
  - { offset: 0x2C3A9, size: 0x8, addend: 0x0, symName: __ZNSt3__123mersenne_twister_engineIjLm32ELm624ELm397ELm31ELj2567483615ELm11ELj4294967295ELm7ELj2636928640ELm15ELj4022730752ELm18ELj1812433253EE3minB8ne180100Ev, symObjAddr: 0x3954, symBinAddr: 0x100013BE0, symSize: 0x8 }
  - { offset: 0x2C3BD, size: 0x8, addend: 0x0, symName: __ZNSt3__123mersenne_twister_engineIjLm32ELm624ELm397ELm31ELj2567483615ELm11ELj4294967295ELm7ELj2636928640ELm15ELj4022730752ELm18ELj1812433253EEclEv, symObjAddr: 0x395C, symBinAddr: 0x100013BE8, symSize: 0x538 }
  - { offset: 0x2C42F, size: 0x8, addend: 0x0, symName: __ZNSt3__123mersenne_twister_engineIjLm32ELm624ELm397ELm31ELj2567483615ELm11ELj4294967295ELm7ELj2636928640ELm15ELj4022730752ELm18ELj1812433253EE8__rshiftB8ne180100ILm1ELi0EEEjj, symObjAddr: 0x3E94, symBinAddr: 0x100014120, symSize: 0x18 }
  - { offset: 0x2C463, size: 0x8, addend: 0x0, symName: __ZNSt3__123mersenne_twister_engineIjLm32ELm624ELm397ELm31ELj2567483615ELm11ELj4294967295ELm7ELj2636928640ELm15ELj4022730752ELm18ELj1812433253EE8__rshiftB8ne180100ILm11ELi0EEEjj, symObjAddr: 0x3EAC, symBinAddr: 0x100014138, symSize: 0x18 }
  - { offset: 0x2C497, size: 0x8, addend: 0x0, symName: __ZNSt3__123mersenne_twister_engineIjLm32ELm624ELm397ELm31ELj2567483615ELm11ELj4294967295ELm7ELj2636928640ELm15ELj4022730752ELm18ELj1812433253EE8__lshiftB8ne180100ILm7ELi0EEEjj, symObjAddr: 0x3EC4, symBinAddr: 0x100014150, symSize: 0x1C }
  - { offset: 0x2C4CB, size: 0x8, addend: 0x0, symName: __ZNSt3__123mersenne_twister_engineIjLm32ELm624ELm397ELm31ELj2567483615ELm11ELj4294967295ELm7ELj2636928640ELm15ELj4022730752ELm18ELj1812433253EE8__lshiftB8ne180100ILm15ELi0EEEjj, symObjAddr: 0x3EE0, symBinAddr: 0x10001416C, symSize: 0x1C }
  - { offset: 0x2C4FF, size: 0x8, addend: 0x0, symName: __ZNSt3__123mersenne_twister_engineIjLm32ELm624ELm397ELm31ELj2567483615ELm11ELj4294967295ELm7ELj2636928640ELm15ELj4022730752ELm18ELj1812433253EE8__rshiftB8ne180100ILm18ELi0EEEjj, symObjAddr: 0x3EFC, symBinAddr: 0x100014188, symSize: 0x18 }
  - { offset: 0x2C532, size: 0x8, addend: 0x0, symName: __ZNSt3__19basic_iosIcNS_11char_traitsIcEEEC2B8ne180100Ev, symObjAddr: 0x3F14, symBinAddr: 0x1000141A0, symSize: 0x7C }
  - { offset: 0x2C55A, size: 0x8, addend: 0x0, symName: __ZNSt3__113basic_istreamIcNS_11char_traitsIcEEEC2B8ne180100EPNS_15basic_streambufIcS2_EE, symObjAddr: 0x3F90, symBinAddr: 0x10001421C, symSize: 0x20C }
  - { offset: 0x2C59D, size: 0x8, addend: 0x0, symName: __ZNSt3__113basic_filebufIcNS_11char_traitsIcEEE4openERKNS_12basic_stringIcS2_NS_9allocatorIcEEEEj, symObjAddr: 0x419C, symBinAddr: 0x100014428, symSize: 0x44 }
  - { offset: 0x2C5E1, size: 0x8, addend: 0x0, symName: __ZNSt3__18ios_baseC2B8ne180100Ev, symObjAddr: 0x420C, symBinAddr: 0x10001446C, symSize: 0x6C }
  - { offset: 0x2C60A, size: 0x8, addend: 0x0, symName: __ZNSt3__19basic_iosIcNS_11char_traitsIcEEE4initB8ne180100EPNS_15basic_streambufIcS2_EE, symObjAddr: 0x4278, symBinAddr: 0x1000144D8, symSize: 0xEC }
  - { offset: 0x2C640, size: 0x8, addend: 0x0, symName: __ZNKSt3__112basic_stringIcNS_11char_traitsIcEENS_9allocatorIcEEE5c_strB8ne180100Ev, symObjAddr: 0x436C, symBinAddr: 0x1000145C4, symSize: 0x24 }
  - { offset: 0x2C665, size: 0x8, addend: 0x0, symName: __ZNKSt3__112basic_stringIcNS_11char_traitsIcEENS_9allocatorIcEEE4dataB8ne180100Ev, symObjAddr: 0x4390, symBinAddr: 0x1000145E8, symSize: 0x28 }
  - { offset: 0x2C68A, size: 0x8, addend: 0x0, symName: __ZNKSt3__112basic_stringIcNS_11char_traitsIcEENS_9allocatorIcEEE13__get_pointerB8ne180100Ev, symObjAddr: 0x43CC, symBinAddr: 0x100014624, symSize: 0x54 }
  - { offset: 0x2C6AF, size: 0x8, addend: 0x0, symName: __ZNKSt3__112basic_stringIcNS_11char_traitsIcEENS_9allocatorIcEEE18__get_long_pointerB8ne180100Ev, symObjAddr: 0x44C4, symBinAddr: 0x100014678, symSize: 0x6C }
  - { offset: 0x2C6D4, size: 0x8, addend: 0x0, symName: __ZNKSt3__112basic_stringIcNS_11char_traitsIcEENS_9allocatorIcEEE19__get_short_pointerB8ne180100Ev, symObjAddr: 0x4530, symBinAddr: 0x1000146E4, symSize: 0x28 }
  - { offset: 0x2C6F9, size: 0x8, addend: 0x0, symName: __ZNSt3__114pointer_traitsIPKcE10pointer_toB8ne180100ERS1_, symObjAddr: 0x4590, symBinAddr: 0x10001470C, symSize: 0x14 }
  - { offset: 0x2C71C, size: 0x8, addend: 0x0, symName: __ZNKSt3__113basic_filebufIcNS_11char_traitsIcEEE7is_openEv, symObjAddr: 0x4640, symBinAddr: 0x100014720, symSize: 0x70 }
  - { offset: 0x2C761, size: 0x8, addend: 0x0, symName: __ZNKSt3__112basic_stringIcNS_11char_traitsIcEENS_9allocatorIcEEE4sizeB8ne180100Ev, symObjAddr: 0x64EC, symBinAddr: 0x100014790, symSize: 0x54 }
  - { offset: 0x2C786, size: 0x8, addend: 0x0, symName: __ZNKSt3__112basic_stringIcNS_11char_traitsIcEENS_9allocatorIcEEE15__get_long_sizeB8ne180100Ev, symObjAddr: 0x6540, symBinAddr: 0x1000147E4, symSize: 0x70 }
  - { offset: 0x2C7AB, size: 0x8, addend: 0x0, symName: __ZNKSt3__112basic_stringIcNS_11char_traitsIcEENS_9allocatorIcEEE16__get_short_sizeB8ne180100Ev, symObjAddr: 0x65B0, symBinAddr: 0x100014854, symSize: 0xA0 }
  - { offset: 0x2C7D0, size: 0x8, addend: 0x0, symName: __ZNKSt3__19basic_iosIcNS_11char_traitsIcEEE4failB8ne180100Ev, symObjAddr: 0x6650, symBinAddr: 0x1000148F4, symSize: 0x28 }
  - { offset: 0x2C7F5, size: 0x8, addend: 0x0, symName: __ZNKSt3__18ios_base4failB8ne180100Ev, symObjAddr: 0x6678, symBinAddr: 0x10001491C, symSize: 0x9C }
  - { offset: 0x2C81B, size: 0x8, addend: 0x0, symName: __ZNSt3__114basic_iostreamIcNS_11char_traitsIcEEEC2B8ne180100EPNS_15basic_streambufIcS2_EE, symObjAddr: 0x6714, symBinAddr: 0x1000149B8, symSize: 0x254 }
  - { offset: 0x2C85E, size: 0x8, addend: 0x0, symName: __ZNSt3__115basic_stringbufIcNS_11char_traitsIcEENS_9allocatorIcEEEC1B8ne180100ERKNS_12basic_stringIcS2_S4_EEj, symObjAddr: 0x6968, symBinAddr: 0x100014C0C, symSize: 0x3C }
  - { offset: 0x2C8A4, size: 0x8, addend: 0x0, symName: __ZNSt3__113basic_ostreamIcNS_11char_traitsIcEEEC2B8ne180100Ev, symObjAddr: 0x69A4, symBinAddr: 0x100014C48, symSize: 0x17C }
  - { offset: 0x2C8D8, size: 0x8, addend: 0x0, symName: __ZNSt3__115basic_stringbufIcNS_11char_traitsIcEENS_9allocatorIcEEEC2B8ne180100ERKNS_12basic_stringIcS2_S4_EEj, symObjAddr: 0x6B20, symBinAddr: 0x100014DC4, symSize: 0x3B4 }
  - { offset: 0x2C922, size: 0x8, addend: 0x0, symName: __ZNKSt3__112basic_stringIcNS_11char_traitsIcEENS_9allocatorIcEEE13get_allocatorB8ne180100Ev, symObjAddr: 0x6ED4, symBinAddr: 0x100015178, symSize: 0x24 }
  - { offset: 0x2C946, size: 0x8, addend: 0x0, symName: __ZNSt3__112basic_stringIcNS_11char_traitsIcEENS_9allocatorIcEEEC1B8ne180100ERKS4_, symObjAddr: 0x6EF8, symBinAddr: 0x10001519C, symSize: 0x34 }
  - { offset: 0x2C97E, size: 0x8, addend: 0x0, symName: __ZNKSt3__112basic_stringIcNS_11char_traitsIcEENS_9allocatorIcEEE7__allocB8ne180100Ev, symObjAddr: 0x6F2C, symBinAddr: 0x1000151D0, symSize: 0x24 }
  - { offset: 0x2C9A3, size: 0x8, addend: 0x0, symName: __ZNKSt3__117__compressed_pairINS_12basic_stringIcNS_11char_traitsIcEENS_9allocatorIcEEE5__repES5_E6secondB8ne180100Ev, symObjAddr: 0x6F50, symBinAddr: 0x1000151F4, symSize: 0x24 }
  - { offset: 0x2C9C7, size: 0x8, addend: 0x0, symName: __ZNKSt3__122__compressed_pair_elemINS_9allocatorIcEELi1ELb1EE5__getB8ne180100Ev, symObjAddr: 0x6F74, symBinAddr: 0x100015218, symSize: 0x14 }
  - { offset: 0x2C9EB, size: 0x8, addend: 0x0, symName: __ZNSt3__112basic_stringIcNS_11char_traitsIcEENS_9allocatorIcEEEC2B8ne180100ERKS4_, symObjAddr: 0x6F88, symBinAddr: 0x10001522C, symSize: 0x238 }
  - { offset: 0x2CA24, size: 0x8, addend: 0x0, symName: __ZNSt3__117__compressed_pairINS_12basic_stringIcNS_11char_traitsIcEENS_9allocatorIcEEE5__repES5_EC1B8ne180100INS_16__value_init_tagERKS5_EEOT_OT0_, symObjAddr: 0x71C0, symBinAddr: 0x100015464, symSize: 0x3C }
  - { offset: 0x2CA7A, size: 0x8, addend: 0x0, symName: __ZNSt3__117__compressed_pairINS_12basic_stringIcNS_11char_traitsIcEENS_9allocatorIcEEE5__repES5_EC2B8ne180100INS_16__value_init_tagERKS5_EEOT_OT0_, symObjAddr: 0x71FC, symBinAddr: 0x1000154A0, symSize: 0x40 }
  - { offset: 0x2CAD0, size: 0x8, addend: 0x0, symName: __ZNSt3__122__compressed_pair_elemINS_9allocatorIcEELi1ELb1EEC2B8ne180100IRKS2_vEEOT_, symObjAddr: 0x723C, symBinAddr: 0x1000154E0, symSize: 0x18 }
  - { offset: 0x2CB30, size: 0x8, addend: 0x0, symName: __ZNKSt3__113basic_istreamIcNS_11char_traitsIcEEE6sentrycvbB8ne180100Ev, symObjAddr: 0x7254, symBinAddr: 0x1000154F8, symSize: 0x88 }
  - { offset: 0x2CB55, size: 0x8, addend: 0x0, symName: __ZNSt3__112basic_stringIcNS_11char_traitsIcEENS_9allocatorIcEEE5clearB8ne180100Ev, symObjAddr: 0x72DC, symBinAddr: 0x100015580, symSize: 0x320 }
  - { offset: 0x2CB8D, size: 0x8, addend: 0x0, symName: __ZNSt3__115basic_streambufIcNS_11char_traitsIcEEE6sbumpcB8ne180100Ev, symObjAddr: 0x75FC, symBinAddr: 0x1000158A0, symSize: 0x1EC }
  - { offset: 0x2CBB2, size: 0x8, addend: 0x0, symName: __ZNSt3__111char_traitsIcE12to_char_typeB8ne180100Ei, symObjAddr: 0x77E8, symBinAddr: 0x100015A8C, symSize: 0x18 }
  - { offset: 0x2CBD6, size: 0x8, addend: 0x0, symName: __ZNSt3__111char_traitsIcE2eqEcc, symObjAddr: 0x7800, symBinAddr: 0x100015AA4, symSize: 0x28 }
  - { offset: 0x2CC07, size: 0x8, addend: 0x0, symName: __ZNKSt3__112basic_stringIcNS_11char_traitsIcEENS_9allocatorIcEEE8max_sizeB8ne180100Ev, symObjAddr: 0x7828, symBinAddr: 0x100015ACC, symSize: 0xBC }
  - { offset: 0x2CC58, size: 0x8, addend: 0x0, symName: __ZNSt3__18ios_base18__setstate_nothrowB8ne180100Ej, symObjAddr: 0x78E4, symBinAddr: 0x100015B88, symSize: 0x178 }
  - { offset: 0x2CC8C, size: 0x8, addend: 0x0, symName: __ZNKSt3__19basic_iosIcNS_11char_traitsIcEEE10exceptionsB8ne180100Ev, symObjAddr: 0x7A5C, symBinAddr: 0x100015D00, symSize: 0x24 }
  - { offset: 0x2CCB0, size: 0x8, addend: 0x0, symName: __ZNSt3__111char_traitsIcE6assignB8ne180100ERcRKc, symObjAddr: 0x7A80, symBinAddr: 0x100015D24, symSize: 0xF4 }
  - { offset: 0x2CCE1, size: 0x8, addend: 0x0, symName: __ZNSt3__112basic_stringIcNS_11char_traitsIcEENS_9allocatorIcEEE15__set_long_sizeB8ne180100Em, symObjAddr: 0x7B74, symBinAddr: 0x100015E18, symSize: 0x80 }
  - { offset: 0x2CD15, size: 0x8, addend: 0x0, symName: __ZNSt3__112basic_stringIcNS_11char_traitsIcEENS_9allocatorIcEEE16__set_short_sizeB8ne180100Em, symObjAddr: 0x7BF4, symBinAddr: 0x100015E98, symSize: 0x130 }
  - { offset: 0x2CD48, size: 0x8, addend: 0x0, symName: __ZNKSt3__112basic_stringIcNS_11char_traitsIcEENS_9allocatorIcEEE17__annotate_shrinkB8ne180100Em, symObjAddr: 0x7D24, symBinAddr: 0x100015FC8, symSize: 0x14 }
  - { offset: 0x2CD7C, size: 0x8, addend: 0x0, symName: __ZNSt3__111char_traitsIcE11to_int_typeB8ne180100Ec, symObjAddr: 0x7D38, symBinAddr: 0x100015FDC, symSize: 0x14 }
  - { offset: 0x2CDA9, size: 0x8, addend: 0x0, symName: __ZNSt3__116allocator_traitsINS_9allocatorIcEEE8max_sizeB8ne180100IS2_vvEEmRKS2_, symObjAddr: 0x7D4C, symBinAddr: 0x100015FF0, symSize: 0x28 }
  - { offset: 0x2CDD7, size: 0x8, addend: 0x0, symName: __ZNSt3__114numeric_limitsImE3maxB8ne180100Ev, symObjAddr: 0x7D74, symBinAddr: 0x100016018, symSize: 0x14 }
  - { offset: 0x2CDEB, size: 0x8, addend: 0x0, symName: __ZNSt3__123__libcpp_numeric_limitsImLb1EE3maxB8ne180100Ev, symObjAddr: 0x7D88, symBinAddr: 0x10001602C, symSize: 0x8 }
  - { offset: 0x2CDFF, size: 0x8, addend: 0x0, symName: __ZNKSt3__18ios_base10exceptionsB8ne180100Ev, symObjAddr: 0x7D90, symBinAddr: 0x100016034, symSize: 0x8C }
...
